
army-ant.elf:     file format elf64-littleriscv


Disassembly of section .text:

0000000040000000 <_start>:
    40000000:	0001a117          	auipc	sp,0x1a
    40000004:	36010113          	add	sp,sp,864 # 4001a360 <stack0>
    40000008:	00001537          	lui	a0,0x1
    4000000c:	f14025f3          	csrr	a1,mhartid
    40000010:	00158593          	add	a1,a1,1
    40000014:	02b50533          	mul	a0,a0,a1
    40000018:	00a10133          	add	sp,sp,a0
    4000001c:	00001097          	auipc	ra,0x1
    40000020:	f70080e7          	jalr	-144(ra) # 40000f8c <boot_cfg>

0000000040000024 <spin>:
    40000024:	0000006f          	j	40000024 <spin>

0000000040000028 <printf>:
    40000028:	ef010113          	add	sp,sp,-272
    4000002c:	0c113423          	sd	ra,200(sp)
    40000030:	0c813023          	sd	s0,192(sp)
    40000034:	0a913c23          	sd	s1,184(sp)
    40000038:	0d010413          	add	s0,sp,208
    4000003c:	00050493          	mv	s1,a0
    40000040:	00b43423          	sd	a1,8(s0)
    40000044:	00c43823          	sd	a2,16(s0)
    40000048:	00d43c23          	sd	a3,24(s0)
    4000004c:	02e43023          	sd	a4,32(s0)
    40000050:	02f43423          	sd	a5,40(s0)
    40000054:	03043823          	sd	a6,48(s0)
    40000058:	03143c23          	sd	a7,56(s0)
    4000005c:	00840793          	add	a5,s0,8
    40000060:	faf43c23          	sd	a5,-72(s0)
    40000064:	00054503          	lbu	a0,0(a0) # 1000 <_start-0x3ffff000>
    40000068:	32050863          	beqz	a0,40000398 <printf+0x370>
    4000006c:	0b213823          	sd	s2,176(sp)
    40000070:	0b313423          	sd	s3,168(sp)
    40000074:	0b413023          	sd	s4,160(sp)
    40000078:	09513c23          	sd	s5,152(sp)
    4000007c:	09613823          	sd	s6,144(sp)
    40000080:	02500993          	li	s3,37
    40000084:	01500a13          	li	s4,21
    40000088:	00019a97          	auipc	s5,0x19
    4000008c:	434a8a93          	add	s5,s5,1076 # 400194bc <kernel_text_end+0x164bc>
    40000090:	2b80006f          	j	40000348 <printf+0x320>
    40000094:	fb843783          	ld	a5,-72(s0)
    40000098:	00878713          	add	a4,a5,8
    4000009c:	fae43c23          	sd	a4,-72(s0)
    400000a0:	0007a783          	lw	a5,0(a5)
    400000a4:	0007cc63          	bltz	a5,400000bc <printf+0x94>
    400000a8:	08079c63          	bnez	a5,40000140 <printf+0x118>
    400000ac:	03000713          	li	a4,48
    400000b0:	f4e40823          	sb	a4,-176(s0)
    400000b4:	00078693          	mv	a3,a5
    400000b8:	0500006f          	j	40000108 <printf+0xe0>
    400000bc:	40f007bb          	negw	a5,a5
    400000c0:	00100813          	li	a6,1
    400000c4:	f5040613          	add	a2,s0,-176
    400000c8:	fff00693          	li	a3,-1
    400000cc:	00a00593          	li	a1,10
    400000d0:	00068513          	mv	a0,a3
    400000d4:	0016869b          	addw	a3,a3,1
    400000d8:	02b7e73b          	remw	a4,a5,a1
    400000dc:	0307071b          	addw	a4,a4,48
    400000e0:	00e60023          	sb	a4,0(a2)
    400000e4:	02b7c7bb          	divw	a5,a5,a1
    400000e8:	00160613          	add	a2,a2,1
    400000ec:	fe0792e3          	bnez	a5,400000d0 <printf+0xa8>
    400000f0:	00080c63          	beqz	a6,40000108 <printf+0xe0>
    400000f4:	0025069b          	addw	a3,a0,2
    400000f8:	fc068793          	add	a5,a3,-64
    400000fc:	008787b3          	add	a5,a5,s0
    40000100:	02d00713          	li	a4,45
    40000104:	f8e78823          	sb	a4,-112(a5)
    40000108:	2206ca63          	bltz	a3,4000033c <printf+0x314>
    4000010c:	f5040793          	add	a5,s0,-176
    40000110:	00d784b3          	add	s1,a5,a3
    40000114:	f4f40793          	add	a5,s0,-177
    40000118:	00d78b33          	add	s6,a5,a3
    4000011c:	02069693          	sll	a3,a3,0x20
    40000120:	0206d693          	srl	a3,a3,0x20
    40000124:	40db0b33          	sub	s6,s6,a3
    40000128:	0004c503          	lbu	a0,0(s1)
    4000012c:	00001097          	auipc	ra,0x1
    40000130:	5a8080e7          	jalr	1448(ra) # 400016d4 <print_char>
    40000134:	fff48493          	add	s1,s1,-1
    40000138:	fe9b18e3          	bne	s6,s1,40000128 <printf+0x100>
    4000013c:	2000006f          	j	4000033c <printf+0x314>
    40000140:	00000813          	li	a6,0
    40000144:	f81ff06f          	j	400000c4 <printf+0x9c>
    40000148:	fb843783          	ld	a5,-72(s0)
    4000014c:	00878713          	add	a4,a5,8
    40000150:	fae43c23          	sd	a4,-72(s0)
    40000154:	0007b503          	ld	a0,0(a5)
    40000158:	00001097          	auipc	ra,0x1
    4000015c:	5a4080e7          	jalr	1444(ra) # 400016fc <print_str>
    40000160:	1dc0006f          	j	4000033c <printf+0x314>
    40000164:	fb843783          	ld	a5,-72(s0)
    40000168:	00878713          	add	a4,a5,8
    4000016c:	fae43c23          	sd	a4,-72(s0)
    40000170:	0007c503          	lbu	a0,0(a5)
    40000174:	00001097          	auipc	ra,0x1
    40000178:	560080e7          	jalr	1376(ra) # 400016d4 <print_char>
    4000017c:	1c00006f          	j	4000033c <printf+0x314>
    40000180:	00019797          	auipc	a5,0x19
    40000184:	e8078793          	add	a5,a5,-384 # 40019000 <kernel_text_end+0x16000>
    40000188:	0007b703          	ld	a4,0(a5)
    4000018c:	f2e43c23          	sd	a4,-200(s0)
    40000190:	0087b703          	ld	a4,8(a5)
    40000194:	f4e43023          	sd	a4,-192(s0)
    40000198:	0107c783          	lbu	a5,16(a5)
    4000019c:	f4f40423          	sb	a5,-184(s0)
    400001a0:	fb843783          	ld	a5,-72(s0)
    400001a4:	00878713          	add	a4,a5,8
    400001a8:	fae43c23          	sd	a4,-72(s0)
    400001ac:	0007b783          	ld	a5,0(a5)
    400001b0:	1e078e63          	beqz	a5,400003ac <printf+0x384>
    400001b4:	f5040613          	add	a2,s0,-176
    400001b8:	fff00693          	li	a3,-1
    400001bc:	00f00513          	li	a0,15
    400001c0:	00068593          	mv	a1,a3
    400001c4:	0016869b          	addw	a3,a3,1
    400001c8:	00f7f713          	and	a4,a5,15
    400001cc:	fc070713          	add	a4,a4,-64
    400001d0:	00870733          	add	a4,a4,s0
    400001d4:	f7874703          	lbu	a4,-136(a4)
    400001d8:	00e60023          	sb	a4,0(a2)
    400001dc:	00078713          	mv	a4,a5
    400001e0:	0047d793          	srl	a5,a5,0x4
    400001e4:	00160613          	add	a2,a2,1
    400001e8:	fce56ce3          	bltu	a0,a4,400001c0 <printf+0x198>
    400001ec:	0025879b          	addw	a5,a1,2
    400001f0:	fc078793          	add	a5,a5,-64
    400001f4:	008787b3          	add	a5,a5,s0
    400001f8:	07800713          	li	a4,120
    400001fc:	f8e78823          	sb	a4,-112(a5)
    40000200:	0035859b          	addw	a1,a1,3
    40000204:	fc058793          	add	a5,a1,-64
    40000208:	008787b3          	add	a5,a5,s0
    4000020c:	03000713          	li	a4,48
    40000210:	f8e78823          	sb	a4,-112(a5)
    40000214:	1205c463          	bltz	a1,4000033c <printf+0x314>
    40000218:	f5040793          	add	a5,s0,-176
    4000021c:	00d784b3          	add	s1,a5,a3
    40000220:	f4f40793          	add	a5,s0,-177
    40000224:	00d78b33          	add	s6,a5,a3
    40000228:	0026869b          	addw	a3,a3,2
    4000022c:	02069693          	sll	a3,a3,0x20
    40000230:	0206d693          	srl	a3,a3,0x20
    40000234:	40db0b33          	sub	s6,s6,a3
    40000238:	0024c503          	lbu	a0,2(s1)
    4000023c:	00001097          	auipc	ra,0x1
    40000240:	498080e7          	jalr	1176(ra) # 400016d4 <print_char>
    40000244:	fff48493          	add	s1,s1,-1
    40000248:	ff6498e3          	bne	s1,s6,40000238 <printf+0x210>
    4000024c:	0f00006f          	j	4000033c <printf+0x314>
    40000250:	00019797          	auipc	a5,0x19
    40000254:	db078793          	add	a5,a5,-592 # 40019000 <kernel_text_end+0x16000>
    40000258:	0007b703          	ld	a4,0(a5)
    4000025c:	f2e43c23          	sd	a4,-200(s0)
    40000260:	0087b703          	ld	a4,8(a5)
    40000264:	f4e43023          	sd	a4,-192(s0)
    40000268:	0107c783          	lbu	a5,16(a5)
    4000026c:	f4f40423          	sb	a5,-184(s0)
    40000270:	fb843783          	ld	a5,-72(s0)
    40000274:	00878713          	add	a4,a5,8
    40000278:	fae43c23          	sd	a4,-72(s0)
    4000027c:	0007b783          	ld	a5,0(a5)
    40000280:	14078463          	beqz	a5,400003c8 <printf+0x3a0>
    40000284:	f5040613          	add	a2,s0,-176
    40000288:	fff00693          	li	a3,-1
    4000028c:	00f00513          	li	a0,15
    40000290:	00068593          	mv	a1,a3
    40000294:	0016869b          	addw	a3,a3,1
    40000298:	00f7f713          	and	a4,a5,15
    4000029c:	fc070713          	add	a4,a4,-64
    400002a0:	00870733          	add	a4,a4,s0
    400002a4:	f7874703          	lbu	a4,-136(a4)
    400002a8:	00e60023          	sb	a4,0(a2)
    400002ac:	00078713          	mv	a4,a5
    400002b0:	0047d793          	srl	a5,a5,0x4
    400002b4:	00160613          	add	a2,a2,1
    400002b8:	fce56ce3          	bltu	a0,a4,40000290 <printf+0x268>
    400002bc:	0025879b          	addw	a5,a1,2
    400002c0:	fc078793          	add	a5,a5,-64
    400002c4:	008787b3          	add	a5,a5,s0
    400002c8:	07800713          	li	a4,120
    400002cc:	f8e78823          	sb	a4,-112(a5)
    400002d0:	0035859b          	addw	a1,a1,3
    400002d4:	fc058793          	add	a5,a1,-64
    400002d8:	008787b3          	add	a5,a5,s0
    400002dc:	03000713          	li	a4,48
    400002e0:	f8e78823          	sb	a4,-112(a5)
    400002e4:	0405cc63          	bltz	a1,4000033c <printf+0x314>
    400002e8:	f5040793          	add	a5,s0,-176
    400002ec:	00d784b3          	add	s1,a5,a3
    400002f0:	f4f40793          	add	a5,s0,-177
    400002f4:	00d78b33          	add	s6,a5,a3
    400002f8:	0026869b          	addw	a3,a3,2
    400002fc:	02069693          	sll	a3,a3,0x20
    40000300:	0206d693          	srl	a3,a3,0x20
    40000304:	40db0b33          	sub	s6,s6,a3
    40000308:	0024c503          	lbu	a0,2(s1)
    4000030c:	00001097          	auipc	ra,0x1
    40000310:	3c8080e7          	jalr	968(ra) # 400016d4 <print_char>
    40000314:	fff48493          	add	s1,s1,-1
    40000318:	ff6498e3          	bne	s1,s6,40000308 <printf+0x2e0>
    4000031c:	0200006f          	j	4000033c <printf+0x314>
    40000320:	02500513          	li	a0,37
    40000324:	00001097          	auipc	ra,0x1
    40000328:	3b0080e7          	jalr	944(ra) # 400016d4 <print_char>
    4000032c:	0100006f          	j	4000033c <printf+0x314>
    40000330:	00001097          	auipc	ra,0x1
    40000334:	3a4080e7          	jalr	932(ra) # 400016d4 <print_char>
    40000338:	00048913          	mv	s2,s1
    4000033c:	00190493          	add	s1,s2,1
    40000340:	00194503          	lbu	a0,1(s2)
    40000344:	04050063          	beqz	a0,40000384 <printf+0x35c>
    40000348:	ff3514e3          	bne	a0,s3,40000330 <printf+0x308>
    4000034c:	00148913          	add	s2,s1,1
    40000350:	0014c783          	lbu	a5,1(s1)
    40000354:	fd3786e3          	beq	a5,s3,40000320 <printf+0x2f8>
    40000358:	f9d7871b          	addw	a4,a5,-99
    4000035c:	0ff77713          	zext.b	a4,a4
    40000360:	fcea6ee3          	bltu	s4,a4,4000033c <printf+0x314>
    40000364:	f9d7879b          	addw	a5,a5,-99
    40000368:	0ff7f713          	zext.b	a4,a5
    4000036c:	fcea68e3          	bltu	s4,a4,4000033c <printf+0x314>
    40000370:	00271793          	sll	a5,a4,0x2
    40000374:	015787b3          	add	a5,a5,s5
    40000378:	0007a783          	lw	a5,0(a5)
    4000037c:	015787b3          	add	a5,a5,s5
    40000380:	00078067          	jr	a5
    40000384:	0b013903          	ld	s2,176(sp)
    40000388:	0a813983          	ld	s3,168(sp)
    4000038c:	0a013a03          	ld	s4,160(sp)
    40000390:	09813a83          	ld	s5,152(sp)
    40000394:	09013b03          	ld	s6,144(sp)
    40000398:	0c813083          	ld	ra,200(sp)
    4000039c:	0c013403          	ld	s0,192(sp)
    400003a0:	0b813483          	ld	s1,184(sp)
    400003a4:	11010113          	add	sp,sp,272
    400003a8:	00008067          	ret
    400003ac:	03000793          	li	a5,48
    400003b0:	f4f40823          	sb	a5,-176(s0)
    400003b4:	07800713          	li	a4,120
    400003b8:	f4e408a3          	sb	a4,-175(s0)
    400003bc:	f4f40923          	sb	a5,-174(s0)
    400003c0:	00000693          	li	a3,0
    400003c4:	e55ff06f          	j	40000218 <printf+0x1f0>
    400003c8:	03000793          	li	a5,48
    400003cc:	f4f40823          	sb	a5,-176(s0)
    400003d0:	07800713          	li	a4,120
    400003d4:	f4e408a3          	sb	a4,-175(s0)
    400003d8:	f4f40923          	sb	a5,-174(s0)
    400003dc:	00000693          	li	a3,0
    400003e0:	f09ff06f          	j	400002e8 <printf+0x2c0>

00000000400003e4 <sprintf>:
    400003e4:	f0010113          	add	sp,sp,-256
    400003e8:	0c113423          	sd	ra,200(sp)
    400003ec:	0c813023          	sd	s0,192(sp)
    400003f0:	0a913c23          	sd	s1,184(sp)
    400003f4:	0d010413          	add	s0,sp,208
    400003f8:	00050493          	mv	s1,a0
    400003fc:	00c43023          	sd	a2,0(s0)
    40000400:	00d43423          	sd	a3,8(s0)
    40000404:	00e43823          	sd	a4,16(s0)
    40000408:	00f43c23          	sd	a5,24(s0)
    4000040c:	03043023          	sd	a6,32(s0)
    40000410:	03143423          	sd	a7,40(s0)
    40000414:	fa843c23          	sd	s0,-72(s0)
    40000418:	0005c783          	lbu	a5,0(a1)
    4000041c:	32078c63          	beqz	a5,40000754 <sprintf+0x370>
    40000420:	0b213823          	sd	s2,176(sp)
    40000424:	0b313423          	sd	s3,168(sp)
    40000428:	0b413023          	sd	s4,160(sp)
    4000042c:	09513c23          	sd	s5,152(sp)
    40000430:	02500993          	li	s3,37
    40000434:	01500a13          	li	s4,21
    40000438:	00019a97          	auipc	s5,0x19
    4000043c:	0dca8a93          	add	s5,s5,220 # 40019514 <kernel_text_end+0x16514>
    40000440:	0f00006f          	j	40000530 <sprintf+0x14c>
    40000444:	00158913          	add	s2,a1,1
    40000448:	0015c783          	lbu	a5,1(a1)
    4000044c:	2f378463          	beq	a5,s3,40000734 <sprintf+0x350>
    40000450:	f9d7871b          	addw	a4,a5,-99
    40000454:	0ff77713          	zext.b	a4,a4
    40000458:	0cea6663          	bltu	s4,a4,40000524 <sprintf+0x140>
    4000045c:	f9d7879b          	addw	a5,a5,-99
    40000460:	0ff7f713          	zext.b	a4,a5
    40000464:	0cea6063          	bltu	s4,a4,40000524 <sprintf+0x140>
    40000468:	00271793          	sll	a5,a4,0x2
    4000046c:	015787b3          	add	a5,a5,s5
    40000470:	0007a783          	lw	a5,0(a5)
    40000474:	015787b3          	add	a5,a5,s5
    40000478:	00078067          	jr	a5
    4000047c:	fb843783          	ld	a5,-72(s0)
    40000480:	00878713          	add	a4,a5,8
    40000484:	fae43c23          	sd	a4,-72(s0)
    40000488:	0007a703          	lw	a4,0(a5)
    4000048c:	00074c63          	bltz	a4,400004a4 <sprintf+0xc0>
    40000490:	0a071a63          	bnez	a4,40000544 <sprintf+0x160>
    40000494:	03000793          	li	a5,48
    40000498:	f4f40823          	sb	a5,-176(s0)
    4000049c:	00070793          	mv	a5,a4
    400004a0:	0500006f          	j	400004f0 <sprintf+0x10c>
    400004a4:	40e0073b          	negw	a4,a4
    400004a8:	00100813          	li	a6,1
    400004ac:	f5040613          	add	a2,s0,-176
    400004b0:	fff00793          	li	a5,-1
    400004b4:	00a00593          	li	a1,10
    400004b8:	00078513          	mv	a0,a5
    400004bc:	0017879b          	addw	a5,a5,1
    400004c0:	02b766bb          	remw	a3,a4,a1
    400004c4:	0306869b          	addw	a3,a3,48
    400004c8:	00d60023          	sb	a3,0(a2)
    400004cc:	02b7473b          	divw	a4,a4,a1
    400004d0:	00160613          	add	a2,a2,1
    400004d4:	fe0712e3          	bnez	a4,400004b8 <sprintf+0xd4>
    400004d8:	00080c63          	beqz	a6,400004f0 <sprintf+0x10c>
    400004dc:	0025079b          	addw	a5,a0,2
    400004e0:	fc078713          	add	a4,a5,-64
    400004e4:	00870733          	add	a4,a4,s0
    400004e8:	02d00693          	li	a3,45
    400004ec:	f8d70823          	sb	a3,-112(a4)
    400004f0:	0407ce63          	bltz	a5,4000054c <sprintf+0x168>
    400004f4:	f5040713          	add	a4,s0,-176
    400004f8:	00f70733          	add	a4,a4,a5
    400004fc:	0017879b          	addw	a5,a5,1
    40000500:	02079793          	sll	a5,a5,0x20
    40000504:	0207d793          	srl	a5,a5,0x20
    40000508:	00f487b3          	add	a5,s1,a5
    4000050c:	00148493          	add	s1,s1,1
    40000510:	00074683          	lbu	a3,0(a4)
    40000514:	fed48fa3          	sb	a3,-1(s1)
    40000518:	fff70713          	add	a4,a4,-1
    4000051c:	fe9798e3          	bne	a5,s1,4000050c <sprintf+0x128>
    40000520:	00078493          	mv	s1,a5
    40000524:	00190593          	add	a1,s2,1
    40000528:	00194783          	lbu	a5,1(s2)
    4000052c:	20078c63          	beqz	a5,40000744 <sprintf+0x360>
    40000530:	f1378ae3          	beq	a5,s3,40000444 <sprintf+0x60>
    40000534:	00f48023          	sb	a5,0(s1)
    40000538:	00058913          	mv	s2,a1
    4000053c:	00148493          	add	s1,s1,1
    40000540:	fe5ff06f          	j	40000524 <sprintf+0x140>
    40000544:	00000813          	li	a6,0
    40000548:	f65ff06f          	j	400004ac <sprintf+0xc8>
    4000054c:	00048793          	mv	a5,s1
    40000550:	fd1ff06f          	j	40000520 <sprintf+0x13c>
    40000554:	fb843783          	ld	a5,-72(s0)
    40000558:	00878713          	add	a4,a5,8
    4000055c:	fae43c23          	sd	a4,-72(s0)
    40000560:	0007b503          	ld	a0,0(a5)
    40000564:	00001097          	auipc	ra,0x1
    40000568:	198080e7          	jalr	408(ra) # 400016fc <print_str>
    4000056c:	fb9ff06f          	j	40000524 <sprintf+0x140>
    40000570:	fb843783          	ld	a5,-72(s0)
    40000574:	00878713          	add	a4,a5,8
    40000578:	fae43c23          	sd	a4,-72(s0)
    4000057c:	0007c503          	lbu	a0,0(a5)
    40000580:	00001097          	auipc	ra,0x1
    40000584:	154080e7          	jalr	340(ra) # 400016d4 <print_char>
    40000588:	f9dff06f          	j	40000524 <sprintf+0x140>
    4000058c:	00019797          	auipc	a5,0x19
    40000590:	a7478793          	add	a5,a5,-1420 # 40019000 <kernel_text_end+0x16000>
    40000594:	0007b703          	ld	a4,0(a5)
    40000598:	f2e43c23          	sd	a4,-200(s0)
    4000059c:	0087b703          	ld	a4,8(a5)
    400005a0:	f4e43023          	sd	a4,-192(s0)
    400005a4:	0107c783          	lbu	a5,16(a5)
    400005a8:	f4f40423          	sb	a5,-184(s0)
    400005ac:	fb843783          	ld	a5,-72(s0)
    400005b0:	00878713          	add	a4,a5,8
    400005b4:	fae43c23          	sd	a4,-72(s0)
    400005b8:	0007b703          	ld	a4,0(a5)
    400005bc:	1a070863          	beqz	a4,4000076c <sprintf+0x388>
    400005c0:	f5040613          	add	a2,s0,-176
    400005c4:	fff00793          	li	a5,-1
    400005c8:	00f00513          	li	a0,15
    400005cc:	00078593          	mv	a1,a5
    400005d0:	0017879b          	addw	a5,a5,1
    400005d4:	00f77693          	and	a3,a4,15
    400005d8:	fc068693          	add	a3,a3,-64
    400005dc:	008686b3          	add	a3,a3,s0
    400005e0:	f786c683          	lbu	a3,-136(a3)
    400005e4:	00d60023          	sb	a3,0(a2)
    400005e8:	00070693          	mv	a3,a4
    400005ec:	00475713          	srl	a4,a4,0x4
    400005f0:	00160613          	add	a2,a2,1
    400005f4:	fcd56ce3          	bltu	a0,a3,400005cc <sprintf+0x1e8>
    400005f8:	0025871b          	addw	a4,a1,2
    400005fc:	fc070713          	add	a4,a4,-64
    40000600:	00870733          	add	a4,a4,s0
    40000604:	07800693          	li	a3,120
    40000608:	f8d70823          	sb	a3,-112(a4)
    4000060c:	0035859b          	addw	a1,a1,3
    40000610:	fc058713          	add	a4,a1,-64
    40000614:	00870733          	add	a4,a4,s0
    40000618:	03000693          	li	a3,48
    4000061c:	f8d70823          	sb	a3,-112(a4)
    40000620:	0205cc63          	bltz	a1,40000658 <sprintf+0x274>
    40000624:	f5040713          	add	a4,s0,-176
    40000628:	00f70733          	add	a4,a4,a5
    4000062c:	0037879b          	addw	a5,a5,3
    40000630:	02079793          	sll	a5,a5,0x20
    40000634:	0207d793          	srl	a5,a5,0x20
    40000638:	00f487b3          	add	a5,s1,a5
    4000063c:	00148493          	add	s1,s1,1
    40000640:	00274683          	lbu	a3,2(a4)
    40000644:	fed48fa3          	sb	a3,-1(s1)
    40000648:	fff70713          	add	a4,a4,-1
    4000064c:	fef498e3          	bne	s1,a5,4000063c <sprintf+0x258>
    40000650:	00078493          	mv	s1,a5
    40000654:	ed1ff06f          	j	40000524 <sprintf+0x140>
    40000658:	00048793          	mv	a5,s1
    4000065c:	ff5ff06f          	j	40000650 <sprintf+0x26c>
    40000660:	00019797          	auipc	a5,0x19
    40000664:	9a078793          	add	a5,a5,-1632 # 40019000 <kernel_text_end+0x16000>
    40000668:	0007b703          	ld	a4,0(a5)
    4000066c:	f2e43c23          	sd	a4,-200(s0)
    40000670:	0087b703          	ld	a4,8(a5)
    40000674:	f4e43023          	sd	a4,-192(s0)
    40000678:	0107c783          	lbu	a5,16(a5)
    4000067c:	f4f40423          	sb	a5,-184(s0)
    40000680:	fb843783          	ld	a5,-72(s0)
    40000684:	00878713          	add	a4,a5,8
    40000688:	fae43c23          	sd	a4,-72(s0)
    4000068c:	0007b703          	ld	a4,0(a5)
    40000690:	0e070c63          	beqz	a4,40000788 <sprintf+0x3a4>
    40000694:	f5040613          	add	a2,s0,-176
    40000698:	fff00793          	li	a5,-1
    4000069c:	00f00513          	li	a0,15
    400006a0:	00078593          	mv	a1,a5
    400006a4:	0017879b          	addw	a5,a5,1
    400006a8:	00f77693          	and	a3,a4,15
    400006ac:	fc068693          	add	a3,a3,-64
    400006b0:	008686b3          	add	a3,a3,s0
    400006b4:	f786c683          	lbu	a3,-136(a3)
    400006b8:	00d60023          	sb	a3,0(a2)
    400006bc:	00070693          	mv	a3,a4
    400006c0:	00475713          	srl	a4,a4,0x4
    400006c4:	00160613          	add	a2,a2,1
    400006c8:	fcd56ce3          	bltu	a0,a3,400006a0 <sprintf+0x2bc>
    400006cc:	0025871b          	addw	a4,a1,2
    400006d0:	fc070713          	add	a4,a4,-64
    400006d4:	00870733          	add	a4,a4,s0
    400006d8:	07800693          	li	a3,120
    400006dc:	f8d70823          	sb	a3,-112(a4)
    400006e0:	0035859b          	addw	a1,a1,3
    400006e4:	fc058713          	add	a4,a1,-64
    400006e8:	00870733          	add	a4,a4,s0
    400006ec:	03000693          	li	a3,48
    400006f0:	f8d70823          	sb	a3,-112(a4)
    400006f4:	0205cc63          	bltz	a1,4000072c <sprintf+0x348>
    400006f8:	f5040713          	add	a4,s0,-176
    400006fc:	00f70733          	add	a4,a4,a5
    40000700:	0037879b          	addw	a5,a5,3
    40000704:	02079793          	sll	a5,a5,0x20
    40000708:	0207d793          	srl	a5,a5,0x20
    4000070c:	00f487b3          	add	a5,s1,a5
    40000710:	00148493          	add	s1,s1,1
    40000714:	00274683          	lbu	a3,2(a4)
    40000718:	fed48fa3          	sb	a3,-1(s1)
    4000071c:	fff70713          	add	a4,a4,-1
    40000720:	fef498e3          	bne	s1,a5,40000710 <sprintf+0x32c>
    40000724:	00078493          	mv	s1,a5
    40000728:	dfdff06f          	j	40000524 <sprintf+0x140>
    4000072c:	00048793          	mv	a5,s1
    40000730:	ff5ff06f          	j	40000724 <sprintf+0x340>
    40000734:	02500793          	li	a5,37
    40000738:	00f48023          	sb	a5,0(s1)
    4000073c:	00148493          	add	s1,s1,1
    40000740:	de5ff06f          	j	40000524 <sprintf+0x140>
    40000744:	0b013903          	ld	s2,176(sp)
    40000748:	0a813983          	ld	s3,168(sp)
    4000074c:	0a013a03          	ld	s4,160(sp)
    40000750:	09813a83          	ld	s5,152(sp)
    40000754:	00048023          	sb	zero,0(s1)
    40000758:	0c813083          	ld	ra,200(sp)
    4000075c:	0c013403          	ld	s0,192(sp)
    40000760:	0b813483          	ld	s1,184(sp)
    40000764:	10010113          	add	sp,sp,256
    40000768:	00008067          	ret
    4000076c:	03000793          	li	a5,48
    40000770:	f4f40823          	sb	a5,-176(s0)
    40000774:	07800713          	li	a4,120
    40000778:	f4e408a3          	sb	a4,-175(s0)
    4000077c:	f4f40923          	sb	a5,-174(s0)
    40000780:	00000793          	li	a5,0
    40000784:	ea1ff06f          	j	40000624 <sprintf+0x240>
    40000788:	03000793          	li	a5,48
    4000078c:	f4f40823          	sb	a5,-176(s0)
    40000790:	07800713          	li	a4,120
    40000794:	f4e408a3          	sb	a4,-175(s0)
    40000798:	f4f40923          	sb	a5,-174(s0)
    4000079c:	00000793          	li	a5,0
    400007a0:	f59ff06f          	j	400006f8 <sprintf+0x314>

00000000400007a4 <getc>:
    400007a4:	fe010113          	add	sp,sp,-32
    400007a8:	00113c23          	sd	ra,24(sp)
    400007ac:	00813823          	sd	s0,16(sp)
    400007b0:	00913423          	sd	s1,8(sp)
    400007b4:	02010413          	add	s0,sp,32
    400007b8:	00050493          	mv	s1,a0
    400007bc:	00001097          	auipc	ra,0x1
    400007c0:	f68080e7          	jalr	-152(ra) # 40001724 <scan_char>
    400007c4:	02054063          	bltz	a0,400007e4 <getc+0x40>
    400007c8:	00a48023          	sb	a0,0(s1)
    400007cc:	00000513          	li	a0,0
    400007d0:	01813083          	ld	ra,24(sp)
    400007d4:	01013403          	ld	s0,16(sp)
    400007d8:	00813483          	ld	s1,8(sp)
    400007dc:	02010113          	add	sp,sp,32
    400007e0:	00008067          	ret
    400007e4:	fff00513          	li	a0,-1
    400007e8:	fe9ff06f          	j	400007d0 <getc+0x2c>

00000000400007ec <putc>:
    400007ec:	fe010113          	add	sp,sp,-32
    400007f0:	00113c23          	sd	ra,24(sp)
    400007f4:	00813823          	sd	s0,16(sp)
    400007f8:	00913423          	sd	s1,8(sp)
    400007fc:	02010413          	add	s0,sp,32
    40000800:	00050493          	mv	s1,a0
    40000804:	00d00793          	li	a5,13
    40000808:	02f50663          	beq	a0,a5,40000834 <putc+0x48>
    4000080c:	00048593          	mv	a1,s1
    40000810:	00019517          	auipc	a0,0x19
    40000814:	81050513          	add	a0,a0,-2032 # 40019020 <kernel_text_end+0x16020>
    40000818:	00000097          	auipc	ra,0x0
    4000081c:	810080e7          	jalr	-2032(ra) # 40000028 <printf>
    40000820:	01813083          	ld	ra,24(sp)
    40000824:	01013403          	ld	s0,16(sp)
    40000828:	00813483          	ld	s1,8(sp)
    4000082c:	02010113          	add	sp,sp,32
    40000830:	00008067          	ret
    40000834:	00018517          	auipc	a0,0x18
    40000838:	7e450513          	add	a0,a0,2020 # 40019018 <kernel_text_end+0x16018>
    4000083c:	fffff097          	auipc	ra,0xfffff
    40000840:	7ec080e7          	jalr	2028(ra) # 40000028 <printf>
    40000844:	fc9ff06f          	j	4000080c <putc+0x20>

0000000040000848 <panic>:
    40000848:	ff010113          	add	sp,sp,-16
    4000084c:	00113423          	sd	ra,8(sp)
    40000850:	00813023          	sd	s0,0(sp)
    40000854:	01010413          	add	s0,sp,16
    40000858:	00060693          	mv	a3,a2
    4000085c:	00058613          	mv	a2,a1
    40000860:	00050593          	mv	a1,a0
    40000864:	00018517          	auipc	a0,0x18
    40000868:	7c450513          	add	a0,a0,1988 # 40019028 <kernel_text_end+0x16028>
    4000086c:	fffff097          	auipc	ra,0xfffff
    40000870:	7bc080e7          	jalr	1980(ra) # 40000028 <printf>
    40000874:	00018517          	auipc	a0,0x18
    40000878:	7cc50513          	add	a0,a0,1996 # 40019040 <kernel_text_end+0x16040>
    4000087c:	fffff097          	auipc	ra,0xfffff
    40000880:	7ac080e7          	jalr	1964(ra) # 40000028 <printf>
    40000884:	0000006f          	j	40000884 <panic+0x3c>

0000000040000888 <memset>:
    40000888:	ff010113          	add	sp,sp,-16
    4000088c:	00813423          	sd	s0,8(sp)
    40000890:	01010413          	add	s0,sp,16
    40000894:	00c05c63          	blez	a2,400008ac <memset+0x24>
    40000898:	00050793          	mv	a5,a0
    4000089c:	00c50533          	add	a0,a0,a2
    400008a0:	00b78023          	sb	a1,0(a5)
    400008a4:	00178793          	add	a5,a5,1
    400008a8:	fea79ce3          	bne	a5,a0,400008a0 <memset+0x18>
    400008ac:	00813403          	ld	s0,8(sp)
    400008b0:	01010113          	add	sp,sp,16
    400008b4:	00008067          	ret

00000000400008b8 <msleep>:
    400008b8:	ff010113          	add	sp,sp,-16
    400008bc:	00813423          	sd	s0,8(sp)
    400008c0:	01010413          	add	s0,sp,16
    400008c4:	0001a717          	auipc	a4,0x1a
    400008c8:	95473703          	ld	a4,-1708(a4) # 4001a218 <timestamp>
    400008cc:	00050e63          	beqz	a0,400008e8 <msleep+0x30>
    400008d0:	0005069b          	sext.w	a3,a0
    400008d4:	0001a617          	auipc	a2,0x1a
    400008d8:	94460613          	add	a2,a2,-1724 # 4001a218 <timestamp>
    400008dc:	00063783          	ld	a5,0(a2)
    400008e0:	40e787bb          	subw	a5,a5,a4
    400008e4:	fed7ece3          	bltu	a5,a3,400008dc <msleep+0x24>
    400008e8:	00813403          	ld	s0,8(sp)
    400008ec:	01010113          	add	sp,sp,16
    400008f0:	00008067          	ret

00000000400008f4 <sleep>:
    400008f4:	ff010113          	add	sp,sp,-16
    400008f8:	00813423          	sd	s0,8(sp)
    400008fc:	01010413          	add	s0,sp,16
    40000900:	0001a697          	auipc	a3,0x1a
    40000904:	9186b683          	ld	a3,-1768(a3) # 4001a218 <timestamp>
    40000908:	3e800713          	li	a4,1000
    4000090c:	02a7073b          	mulw	a4,a4,a0
    40000910:	00050c63          	beqz	a0,40000928 <sleep+0x34>
    40000914:	0001a617          	auipc	a2,0x1a
    40000918:	90460613          	add	a2,a2,-1788 # 4001a218 <timestamp>
    4000091c:	00063783          	ld	a5,0(a2)
    40000920:	40d787bb          	subw	a5,a5,a3
    40000924:	fee7ece3          	bltu	a5,a4,4000091c <sleep+0x28>
    40000928:	00813403          	ld	s0,8(sp)
    4000092c:	01010113          	add	sp,sp,16
    40000930:	00008067          	ret

0000000040000934 <timestamp_update>:
    40000934:	ff010113          	add	sp,sp,-16
    40000938:	00813423          	sd	s0,8(sp)
    4000093c:	01010413          	add	s0,sp,16
    40000940:	0001a717          	auipc	a4,0x1a
    40000944:	8d870713          	add	a4,a4,-1832 # 4001a218 <timestamp>
    40000948:	00073783          	ld	a5,0(a4)
    4000094c:	00178793          	add	a5,a5,1
    40000950:	00f73023          	sd	a5,0(a4)
    40000954:	00813403          	ld	s0,8(sp)
    40000958:	01010113          	add	sp,sp,16
    4000095c:	00008067          	ret

0000000040000960 <get_timestamp_duration>:
    40000960:	ff010113          	add	sp,sp,-16
    40000964:	00813423          	sd	s0,8(sp)
    40000968:	01010413          	add	s0,sp,16
    4000096c:	40a585bb          	subw	a1,a1,a0
    40000970:	00b62023          	sw	a1,0(a2)
    40000974:	00813403          	ld	s0,8(sp)
    40000978:	01010113          	add	sp,sp,16
    4000097c:	00008067          	ret

0000000040000980 <start_timing>:
    40000980:	ff010113          	add	sp,sp,-16
    40000984:	00813423          	sd	s0,8(sp)
    40000988:	01010413          	add	s0,sp,16
    4000098c:	0001a797          	auipc	a5,0x1a
    40000990:	88c7b783          	ld	a5,-1908(a5) # 4001a218 <timestamp>
    40000994:	0001a717          	auipc	a4,0x1a
    40000998:	86f73e23          	sd	a5,-1924(a4) # 4001a210 <cur_timestamp>
    4000099c:	00813403          	ld	s0,8(sp)
    400009a0:	01010113          	add	sp,sp,16
    400009a4:	00008067          	ret

00000000400009a8 <stop_timing>:
    400009a8:	ff010113          	add	sp,sp,-16
    400009ac:	00813423          	sd	s0,8(sp)
    400009b0:	01010413          	add	s0,sp,16
    400009b4:	0001a717          	auipc	a4,0x1a
    400009b8:	85c73703          	ld	a4,-1956(a4) # 4001a210 <cur_timestamp>
    400009bc:	0001a797          	auipc	a5,0x1a
    400009c0:	85c7b783          	ld	a5,-1956(a5) # 4001a218 <timestamp>
    400009c4:	40e787bb          	subw	a5,a5,a4
    400009c8:	00f52023          	sw	a5,0(a0)
    400009cc:	00813403          	ld	s0,8(sp)
    400009d0:	01010113          	add	sp,sp,16
    400009d4:	00008067          	ret

00000000400009d8 <strcpy>:
    400009d8:	ff010113          	add	sp,sp,-16
    400009dc:	00813423          	sd	s0,8(sp)
    400009e0:	01010413          	add	s0,sp,16
    400009e4:	0005c783          	lbu	a5,0(a1)
    400009e8:	00078c63          	beqz	a5,40000a00 <strcpy+0x28>
    400009ec:	00158593          	add	a1,a1,1
    400009f0:	00150513          	add	a0,a0,1
    400009f4:	fef50fa3          	sb	a5,-1(a0)
    400009f8:	0005c783          	lbu	a5,0(a1)
    400009fc:	fe0798e3          	bnez	a5,400009ec <strcpy+0x14>
    40000a00:	00050023          	sb	zero,0(a0)
    40000a04:	00813403          	ld	s0,8(sp)
    40000a08:	01010113          	add	sp,sp,16
    40000a0c:	00008067          	ret

0000000040000a10 <current_cpu>:
    40000a10:	ff010113          	add	sp,sp,-16
    40000a14:	00813423          	sd	s0,8(sp)
    40000a18:	01010413          	add	s0,sp,16
    40000a1c:	00020793          	mv	a5,tp
    40000a20:	0007a703          	lw	a4,0(a5)
    40000a24:	00471793          	sll	a5,a4,0x4
    40000a28:	00e787b3          	add	a5,a5,a4
    40000a2c:	00479793          	sll	a5,a5,0x4
    40000a30:	0001a517          	auipc	a0,0x1a
    40000a34:	82050513          	add	a0,a0,-2016 # 4001a250 <cpu_list>
    40000a38:	00f50533          	add	a0,a0,a5
    40000a3c:	00813403          	ld	s0,8(sp)
    40000a40:	01010113          	add	sp,sp,16
    40000a44:	00008067          	ret
	...

0000000040000a50 <k_interrupt_vector>:
    40000a50:	f0010113          	add	sp,sp,-256
    40000a54:	00113023          	sd	ra,0(sp)
    40000a58:	00213423          	sd	sp,8(sp)
    40000a5c:	00313823          	sd	gp,16(sp)
    40000a60:	00413c23          	sd	tp,24(sp)
    40000a64:	02513023          	sd	t0,32(sp)
    40000a68:	02613423          	sd	t1,40(sp)
    40000a6c:	02713823          	sd	t2,48(sp)
    40000a70:	02813c23          	sd	s0,56(sp)
    40000a74:	04913023          	sd	s1,64(sp)
    40000a78:	04a13423          	sd	a0,72(sp)
    40000a7c:	04b13823          	sd	a1,80(sp)
    40000a80:	04c13c23          	sd	a2,88(sp)
    40000a84:	06d13023          	sd	a3,96(sp)
    40000a88:	06e13423          	sd	a4,104(sp)
    40000a8c:	06f13823          	sd	a5,112(sp)
    40000a90:	07013c23          	sd	a6,120(sp)
    40000a94:	09113023          	sd	a7,128(sp)
    40000a98:	09213423          	sd	s2,136(sp)
    40000a9c:	09313823          	sd	s3,144(sp)
    40000aa0:	09413c23          	sd	s4,152(sp)
    40000aa4:	0b513023          	sd	s5,160(sp)
    40000aa8:	0b613423          	sd	s6,168(sp)
    40000aac:	0b713823          	sd	s7,176(sp)
    40000ab0:	0b813c23          	sd	s8,184(sp)
    40000ab4:	0d913023          	sd	s9,192(sp)
    40000ab8:	0da13423          	sd	s10,200(sp)
    40000abc:	0db13823          	sd	s11,208(sp)
    40000ac0:	0dc13c23          	sd	t3,216(sp)
    40000ac4:	0fd13023          	sd	t4,224(sp)
    40000ac8:	0fe13423          	sd	t5,232(sp)
    40000acc:	0ff13823          	sd	t6,240(sp)
    40000ad0:	00001097          	auipc	ra,0x1
    40000ad4:	f3c080e7          	jalr	-196(ra) # 40001a0c <k_interrupt_handler>
    40000ad8:	00013083          	ld	ra,0(sp)
    40000adc:	00813103          	ld	sp,8(sp)
    40000ae0:	01013183          	ld	gp,16(sp)
    40000ae4:	02013283          	ld	t0,32(sp)
    40000ae8:	02813303          	ld	t1,40(sp)
    40000aec:	03013383          	ld	t2,48(sp)
    40000af0:	03813403          	ld	s0,56(sp)
    40000af4:	04013483          	ld	s1,64(sp)
    40000af8:	04813503          	ld	a0,72(sp)
    40000afc:	05013583          	ld	a1,80(sp)
    40000b00:	05813603          	ld	a2,88(sp)
    40000b04:	06013683          	ld	a3,96(sp)
    40000b08:	06813703          	ld	a4,104(sp)
    40000b0c:	07013783          	ld	a5,112(sp)
    40000b10:	07813803          	ld	a6,120(sp)
    40000b14:	08013883          	ld	a7,128(sp)
    40000b18:	08813903          	ld	s2,136(sp)
    40000b1c:	09013983          	ld	s3,144(sp)
    40000b20:	09813a03          	ld	s4,152(sp)
    40000b24:	0a013a83          	ld	s5,160(sp)
    40000b28:	0a813b03          	ld	s6,168(sp)
    40000b2c:	0b013b83          	ld	s7,176(sp)
    40000b30:	0b813c03          	ld	s8,184(sp)
    40000b34:	0c013c83          	ld	s9,192(sp)
    40000b38:	0c813d03          	ld	s10,200(sp)
    40000b3c:	0d013d83          	ld	s11,208(sp)
    40000b40:	0d813e03          	ld	t3,216(sp)
    40000b44:	0e013e83          	ld	t4,224(sp)
    40000b48:	0e813f03          	ld	t5,232(sp)
    40000b4c:	0f013f83          	ld	t6,240(sp)
    40000b50:	10010113          	add	sp,sp,256
    40000b54:	10200073          	sret
    40000b58:	00000013          	nop
    40000b5c:	00000013          	nop

0000000040000b60 <uart_init>:
    40000b60:	ff010113          	add	sp,sp,-16
    40000b64:	00813423          	sd	s0,8(sp)
    40000b68:	01010413          	add	s0,sp,16
    40000b6c:	025007b7          	lui	a5,0x2500
    40000b70:	0007a223          	sw	zero,4(a5) # 2500004 <_start-0x3daffffc>
    40000b74:	02500737          	lui	a4,0x2500
    40000b78:	00100693          	li	a3,1
    40000b7c:	00d72423          	sw	a3,8(a4) # 2500008 <_start-0x3daffff8>
    40000b80:	00d7a223          	sw	a3,4(a5)
    40000b84:	00813403          	ld	s0,8(sp)
    40000b88:	01010113          	add	sp,sp,16
    40000b8c:	00008067          	ret

0000000040000b90 <uart_print_char>:
    40000b90:	fe010113          	add	sp,sp,-32
    40000b94:	00813c23          	sd	s0,24(sp)
    40000b98:	02010413          	add	s0,sp,32
    40000b9c:	02500737          	lui	a4,0x2500
    40000ba0:	01470713          	add	a4,a4,20 # 2500014 <_start-0x3dafffec>
    40000ba4:	00072783          	lw	a5,0(a4)
    40000ba8:	fef42623          	sw	a5,-20(s0)
    40000bac:	fec42783          	lw	a5,-20(s0)
    40000bb0:	0207f793          	and	a5,a5,32
    40000bb4:	fe0788e3          	beqz	a5,40000ba4 <uart_print_char+0x14>
    40000bb8:	0005051b          	sext.w	a0,a0
    40000bbc:	025007b7          	lui	a5,0x2500
    40000bc0:	00a7a023          	sw	a0,0(a5) # 2500000 <_start-0x3db00000>
    40000bc4:	01813403          	ld	s0,24(sp)
    40000bc8:	02010113          	add	sp,sp,32
    40000bcc:	00008067          	ret

0000000040000bd0 <uart_scan_char>:
    40000bd0:	fe010113          	add	sp,sp,-32
    40000bd4:	00813c23          	sd	s0,24(sp)
    40000bd8:	02010413          	add	s0,sp,32
    40000bdc:	025007b7          	lui	a5,0x2500
    40000be0:	01478793          	add	a5,a5,20 # 2500014 <_start-0x3dafffec>
    40000be4:	0007a783          	lw	a5,0(a5)
    40000be8:	fef42423          	sw	a5,-24(s0)
    40000bec:	fe842783          	lw	a5,-24(s0)
    40000bf0:	0017f793          	and	a5,a5,1
    40000bf4:	02078263          	beqz	a5,40000c18 <uart_scan_char+0x48>
    40000bf8:	025007b7          	lui	a5,0x2500
    40000bfc:	0007a783          	lw	a5,0(a5) # 2500000 <_start-0x3db00000>
    40000c00:	fef42623          	sw	a5,-20(s0)
    40000c04:	fec42503          	lw	a0,-20(s0)
    40000c08:	0005051b          	sext.w	a0,a0
    40000c0c:	01813403          	ld	s0,24(sp)
    40000c10:	02010113          	add	sp,sp,32
    40000c14:	00008067          	ret
    40000c18:	fff00513          	li	a0,-1
    40000c1c:	ff1ff06f          	j	40000c0c <uart_scan_char+0x3c>

0000000040000c20 <uart_print_str>:
    40000c20:	fe010113          	add	sp,sp,-32
    40000c24:	00113c23          	sd	ra,24(sp)
    40000c28:	00813823          	sd	s0,16(sp)
    40000c2c:	00913423          	sd	s1,8(sp)
    40000c30:	02010413          	add	s0,sp,32
    40000c34:	00050493          	mv	s1,a0
    40000c38:	00054503          	lbu	a0,0(a0)
    40000c3c:	00050c63          	beqz	a0,40000c54 <uart_print_str+0x34>
    40000c40:	00000097          	auipc	ra,0x0
    40000c44:	f50080e7          	jalr	-176(ra) # 40000b90 <uart_print_char>
    40000c48:	00148493          	add	s1,s1,1
    40000c4c:	0004c503          	lbu	a0,0(s1)
    40000c50:	fe0518e3          	bnez	a0,40000c40 <uart_print_str+0x20>
    40000c54:	01813083          	ld	ra,24(sp)
    40000c58:	01013403          	ld	s0,16(sp)
    40000c5c:	00813483          	ld	s1,8(sp)
    40000c60:	02010113          	add	sp,sp,32
    40000c64:	00008067          	ret

0000000040000c68 <plic_interrupt_enable>:
    40000c68:	ff010113          	add	sp,sp,-16
    40000c6c:	00813423          	sd	s0,8(sp)
    40000c70:	01010413          	add	s0,sp,16
    40000c74:	100007b7          	lui	a5,0x10000
    40000c78:	00478793          	add	a5,a5,4 # 10000004 <_start-0x2ffffffc>
    40000c7c:	00100613          	li	a2,1
    40000c80:	100006b7          	lui	a3,0x10000
    40000c84:	40068693          	add	a3,a3,1024 # 10000400 <_start-0x2ffffc00>
    40000c88:	02079713          	sll	a4,a5,0x20
    40000c8c:	02075713          	srl	a4,a4,0x20
    40000c90:	00c72023          	sw	a2,0(a4)
    40000c94:	0047879b          	addw	a5,a5,4
    40000c98:	fed798e3          	bne	a5,a3,40000c88 <plic_interrupt_enable+0x20>
    40000c9c:	100027b7          	lui	a5,0x10002
    40000ca0:	08078793          	add	a5,a5,128 # 10002080 <_start-0x2fffdf80>
    40000ca4:	fff00613          	li	a2,-1
    40000ca8:	100026b7          	lui	a3,0x10002
    40000cac:	0a868693          	add	a3,a3,168 # 100020a8 <_start-0x2fffdf58>
    40000cb0:	02079713          	sll	a4,a5,0x20
    40000cb4:	02075713          	srl	a4,a4,0x20
    40000cb8:	00c72023          	sw	a2,0(a4)
    40000cbc:	0047879b          	addw	a5,a5,4
    40000cc0:	fed798e3          	bne	a5,a3,40000cb0 <plic_interrupt_enable+0x48>
    40000cc4:	00813403          	ld	s0,8(sp)
    40000cc8:	01010113          	add	sp,sp,16
    40000ccc:	00008067          	ret

0000000040000cd0 <plic_interrupt_disable>:
    40000cd0:	ff010113          	add	sp,sp,-16
    40000cd4:	00813423          	sd	s0,8(sp)
    40000cd8:	01010413          	add	s0,sp,16
    40000cdc:	100007b7          	lui	a5,0x10000
    40000ce0:	00478793          	add	a5,a5,4 # 10000004 <_start-0x2ffffffc>
    40000ce4:	100006b7          	lui	a3,0x10000
    40000ce8:	40068693          	add	a3,a3,1024 # 10000400 <_start-0x2ffffc00>
    40000cec:	02079713          	sll	a4,a5,0x20
    40000cf0:	02075713          	srl	a4,a4,0x20
    40000cf4:	00072023          	sw	zero,0(a4)
    40000cf8:	0047879b          	addw	a5,a5,4
    40000cfc:	fed798e3          	bne	a5,a3,40000cec <plic_interrupt_disable+0x1c>
    40000d00:	100027b7          	lui	a5,0x10002
    40000d04:	08078793          	add	a5,a5,128 # 10002080 <_start-0x2fffdf80>
    40000d08:	100026b7          	lui	a3,0x10002
    40000d0c:	0a868693          	add	a3,a3,168 # 100020a8 <_start-0x2fffdf58>
    40000d10:	02079713          	sll	a4,a5,0x20
    40000d14:	02075713          	srl	a4,a4,0x20
    40000d18:	00072023          	sw	zero,0(a4)
    40000d1c:	0047879b          	addw	a5,a5,4
    40000d20:	fed798e3          	bne	a5,a3,40000d10 <plic_interrupt_disable+0x40>
    40000d24:	00813403          	ld	s0,8(sp)
    40000d28:	01010113          	add	sp,sp,16
    40000d2c:	00008067          	ret

0000000040000d30 <plic_s_mode_access>:
    40000d30:	ff010113          	add	sp,sp,-16
    40000d34:	00813423          	sd	s0,8(sp)
    40000d38:	01010413          	add	s0,sp,16
    40000d3c:	102007b7          	lui	a5,0x10200
    40000d40:	00100713          	li	a4,1
    40000d44:	fee7ae23          	sw	a4,-4(a5) # 101ffffc <_start-0x2fe00004>
    40000d48:	00813403          	ld	s0,8(sp)
    40000d4c:	01010113          	add	sp,sp,16
    40000d50:	00008067          	ret

0000000040000d54 <timer_interrupt_enable>:
    40000d54:	fe010113          	add	sp,sp,-32
    40000d58:	00813c23          	sd	s0,24(sp)
    40000d5c:	02010413          	add	s0,sp,32
    40000d60:	020506b7          	lui	a3,0x2050
    40000d64:	0006a783          	lw	a5,0(a3) # 2050000 <_start-0x3dfb0000>
    40000d68:	fef42623          	sw	a5,-20(s0)
    40000d6c:	fec42783          	lw	a5,-20(s0)
    40000d70:	00100713          	li	a4,1
    40000d74:	00a7173b          	sllw	a4,a4,a0
    40000d78:	00e7e7b3          	or	a5,a5,a4
    40000d7c:	0007879b          	sext.w	a5,a5
    40000d80:	00f6a023          	sw	a5,0(a3)
    40000d84:	01813403          	ld	s0,24(sp)
    40000d88:	02010113          	add	sp,sp,32
    40000d8c:	00008067          	ret

0000000040000d90 <timer_pending_clear>:
    40000d90:	ff010113          	add	sp,sp,-16
    40000d94:	00813423          	sd	s0,8(sp)
    40000d98:	01010413          	add	s0,sp,16
    40000d9c:	00100793          	li	a5,1
    40000da0:	00a7953b          	sllw	a0,a5,a0
    40000da4:	020507b7          	lui	a5,0x2050
    40000da8:	00a7a223          	sw	a0,4(a5) # 2050004 <_start-0x3dfafffc>
    40000dac:	00813403          	ld	s0,8(sp)
    40000db0:	01010113          	add	sp,sp,16
    40000db4:	00008067          	ret

0000000040000db8 <timer_set_prescale>:
    40000db8:	fe010113          	add	sp,sp,-32
    40000dbc:	00813c23          	sd	s0,24(sp)
    40000dc0:	02010413          	add	s0,sp,32
    40000dc4:	002057b7          	lui	a5,0x205
    40000dc8:	0017879b          	addw	a5,a5,1 # 205001 <_start-0x3fdfafff>
    40000dcc:	00a787bb          	addw	a5,a5,a0
    40000dd0:	0047979b          	sllw	a5,a5,0x4
    40000dd4:	02079793          	sll	a5,a5,0x20
    40000dd8:	0207d793          	srl	a5,a5,0x20
    40000ddc:	0007a703          	lw	a4,0(a5)
    40000de0:	fee42623          	sw	a4,-20(s0)
    40000de4:	fec42703          	lw	a4,-20(s0)
    40000de8:	0045959b          	sllw	a1,a1,0x4
    40000dec:	00b76733          	or	a4,a4,a1
    40000df0:	0007071b          	sext.w	a4,a4
    40000df4:	00e7a023          	sw	a4,0(a5)
    40000df8:	01813403          	ld	s0,24(sp)
    40000dfc:	02010113          	add	sp,sp,32
    40000e00:	00008067          	ret

0000000040000e04 <timer_start>:
    40000e04:	fb010113          	add	sp,sp,-80
    40000e08:	04113423          	sd	ra,72(sp)
    40000e0c:	04813023          	sd	s0,64(sp)
    40000e10:	03213823          	sd	s2,48(sp)
    40000e14:	03313423          	sd	s3,40(sp)
    40000e18:	03413023          	sd	s4,32(sp)
    40000e1c:	05010413          	add	s0,sp,80
    40000e20:	00050993          	mv	s3,a0
    40000e24:	0045191b          	sllw	s2,a0,0x4
    40000e28:	020507b7          	lui	a5,0x2050
    40000e2c:	0147879b          	addw	a5,a5,20 # 2050014 <_start-0x3dfaffec>
    40000e30:	00f907bb          	addw	a5,s2,a5
    40000e34:	02079793          	sll	a5,a5,0x20
    40000e38:	0207d793          	srl	a5,a5,0x20
    40000e3c:	0007a703          	lw	a4,0(a5)
    40000e40:	fce42223          	sw	a4,-60(s0)
    40000e44:	fc442703          	lw	a4,-60(s0)
    40000e48:	016e36b7          	lui	a3,0x16e3
    40000e4c:	6006869b          	addw	a3,a3,1536 # 16e3600 <_start-0x3e91ca00>
    40000e50:	02b6c6bb          	divw	a3,a3,a1
    40000e54:	00d76733          	or	a4,a4,a3
    40000e58:	0007071b          	sext.w	a4,a4
    40000e5c:	00e7a023          	sw	a4,0(a5)
    40000e60:	020507b7          	lui	a5,0x2050
    40000e64:	0107879b          	addw	a5,a5,16 # 2050010 <_start-0x3dfafff0>
    40000e68:	00f9093b          	addw	s2,s2,a5
    40000e6c:	02091a13          	sll	s4,s2,0x20
    40000e70:	020a5a13          	srl	s4,s4,0x20
    40000e74:	000a2783          	lw	a5,0(s4)
    40000e78:	fcf42023          	sw	a5,-64(s0)
    40000e7c:	fc042783          	lw	a5,-64(s0)
    40000e80:	fcf42623          	sw	a5,-52(s0)
    40000e84:	00000593          	li	a1,0
    40000e88:	00000097          	auipc	ra,0x0
    40000e8c:	f30080e7          	jalr	-208(ra) # 40000db8 <timer_set_prescale>
    40000e90:	000a2783          	lw	a5,0(s4)
    40000e94:	faf42e23          	sw	a5,-68(s0)
    40000e98:	fbc42783          	lw	a5,-68(s0)
    40000e9c:	fcf42623          	sw	a5,-52(s0)
    40000ea0:	fcc42783          	lw	a5,-52(s0)
    40000ea4:	0027e793          	or	a5,a5,2
    40000ea8:	fcf42623          	sw	a5,-52(s0)
    40000eac:	fcc42783          	lw	a5,-52(s0)
    40000eb0:	0007879b          	sext.w	a5,a5
    40000eb4:	00fa2023          	sw	a5,0(s4)
    40000eb8:	000a2783          	lw	a5,0(s4)
    40000ebc:	faf42c23          	sw	a5,-72(s0)
    40000ec0:	fb842783          	lw	a5,-72(s0)
    40000ec4:	fcf42623          	sw	a5,-52(s0)
    40000ec8:	fcc42783          	lw	a5,-52(s0)
    40000ecc:	0027f793          	and	a5,a5,2
    40000ed0:	02078a63          	beqz	a5,40000f04 <timer_start+0x100>
    40000ed4:	02913c23          	sd	s1,56(sp)
    40000ed8:	0009049b          	sext.w	s1,s2
    40000edc:	02049713          	sll	a4,s1,0x20
    40000ee0:	02075713          	srl	a4,a4,0x20
    40000ee4:	00072783          	lw	a5,0(a4)
    40000ee8:	fcf42423          	sw	a5,-56(s0)
    40000eec:	fc842783          	lw	a5,-56(s0)
    40000ef0:	fcf42623          	sw	a5,-52(s0)
    40000ef4:	fcc42783          	lw	a5,-52(s0)
    40000ef8:	0027f793          	and	a5,a5,2
    40000efc:	fe0794e3          	bnez	a5,40000ee4 <timer_start+0xe0>
    40000f00:	03813483          	ld	s1,56(sp)
    40000f04:	fcc42783          	lw	a5,-52(s0)
    40000f08:	0017e793          	or	a5,a5,1
    40000f0c:	fcf42623          	sw	a5,-52(s0)
    40000f10:	fcc42783          	lw	a5,-52(s0)
    40000f14:	0007879b          	sext.w	a5,a5
    40000f18:	02091913          	sll	s2,s2,0x20
    40000f1c:	02095913          	srl	s2,s2,0x20
    40000f20:	00f92023          	sw	a5,0(s2)
    40000f24:	00098513          	mv	a0,s3
    40000f28:	00000097          	auipc	ra,0x0
    40000f2c:	e2c080e7          	jalr	-468(ra) # 40000d54 <timer_interrupt_enable>
    40000f30:	04813083          	ld	ra,72(sp)
    40000f34:	04013403          	ld	s0,64(sp)
    40000f38:	03013903          	ld	s2,48(sp)
    40000f3c:	02813983          	ld	s3,40(sp)
    40000f40:	02013a03          	ld	s4,32(sp)
    40000f44:	05010113          	add	sp,sp,80
    40000f48:	00008067          	ret

0000000040000f4c <timer_stop>:
    40000f4c:	fe010113          	add	sp,sp,-32
    40000f50:	00813c23          	sd	s0,24(sp)
    40000f54:	02010413          	add	s0,sp,32
    40000f58:	020506b7          	lui	a3,0x2050
    40000f5c:	0006a783          	lw	a5,0(a3) # 2050000 <_start-0x3dfb0000>
    40000f60:	fef42623          	sw	a5,-20(s0)
    40000f64:	fec42783          	lw	a5,-20(s0)
    40000f68:	00100713          	li	a4,1
    40000f6c:	00a7173b          	sllw	a4,a4,a0
    40000f70:	fff74713          	not	a4,a4
    40000f74:	00e7f7b3          	and	a5,a5,a4
    40000f78:	0007879b          	sext.w	a5,a5
    40000f7c:	00f6a023          	sw	a5,0(a3)
    40000f80:	01813403          	ld	s0,24(sp)
    40000f84:	02010113          	add	sp,sp,32
    40000f88:	00008067          	ret

0000000040000f8c <boot_cfg>:
    40000f8c:	e6010113          	add	sp,sp,-416
    40000f90:	18113c23          	sd	ra,408(sp)
    40000f94:	18813823          	sd	s0,400(sp)
    40000f98:	1a010413          	add	s0,sp,416
    40000f9c:	300027f3          	csrr	a5,mstatus
    40000fa0:	ffffe737          	lui	a4,0xffffe
    40000fa4:	7ff70713          	add	a4,a4,2047 # ffffffffffffe7ff <kernel_end+0xffffffffbfede7ff>
    40000fa8:	00e7f7b3          	and	a5,a5,a4
    40000fac:	00001737          	lui	a4,0x1
    40000fb0:	80070713          	add	a4,a4,-2048 # 800 <_start-0x3ffff800>
    40000fb4:	00e7e7b3          	or	a5,a5,a4
    40000fb8:	30079073          	csrw	mstatus,a5
    40000fbc:	00000797          	auipc	a5,0x0
    40000fc0:	0b478793          	add	a5,a5,180 # 40001070 <main>
    40000fc4:	34179073          	csrw	mepc,a5
    40000fc8:	12000073          	sfence.vma
    40000fcc:	00000793          	li	a5,0
    40000fd0:	18079073          	csrw	satp,a5
    40000fd4:	12000073          	sfence.vma
    40000fd8:	000107b7          	lui	a5,0x10
    40000fdc:	fff78793          	add	a5,a5,-1 # ffff <_start-0x3fff0001>
    40000fe0:	30279073          	csrw	medeleg,a5
    40000fe4:	30379073          	csrw	mideleg,a5
    40000fe8:	104027f3          	csrr	a5,sie
    40000fec:	2227e793          	or	a5,a5,546
    40000ff0:	10479073          	csrw	sie,a5
    40000ff4:	00000097          	auipc	ra,0x0
    40000ff8:	d3c080e7          	jalr	-708(ra) # 40000d30 <plic_s_mode_access>
    40000ffc:	fff00793          	li	a5,-1
    40001000:	3b079073          	csrw	pmpaddr0,a5
    40001004:	00f00793          	li	a5,15
    40001008:	3a079073          	csrw	pmpcfg0,a5
    4000100c:	f14027f3          	csrr	a5,mhartid
    40001010:	e6f43023          	sd	a5,-416(s0)
    40001014:	e6040793          	add	a5,s0,-416
    40001018:	00078213          	mv	tp,a5
    4000101c:	30200073          	mret
    40001020:	19813083          	ld	ra,408(sp)
    40001024:	19013403          	ld	s0,400(sp)
    40001028:	1a010113          	add	sp,sp,416
    4000102c:	00008067          	ret

0000000040001030 <kernel_init>:
    40001030:	ff010113          	add	sp,sp,-16
    40001034:	00113423          	sd	ra,8(sp)
    40001038:	00813023          	sd	s0,0(sp)
    4000103c:	01010413          	add	s0,sp,16
    40001040:	00001097          	auipc	ra,0x1
    40001044:	904080e7          	jalr	-1788(ra) # 40001944 <k_mem_paging_init>
    40001048:	00000097          	auipc	ra,0x0
    4000104c:	77c080e7          	jalr	1916(ra) # 400017c4 <k_pagetable_init>
    40001050:	00001097          	auipc	ra,0x1
    40001054:	844080e7          	jalr	-1980(ra) # 40001894 <k_vm_enable>
    40001058:	00001097          	auipc	ra,0x1
    4000105c:	98c080e7          	jalr	-1652(ra) # 400019e4 <k_interrupt_init>
    40001060:	00813083          	ld	ra,8(sp)
    40001064:	00013403          	ld	s0,0(sp)
    40001068:	01010113          	add	sp,sp,16
    4000106c:	00008067          	ret

0000000040001070 <main>:
    40001070:	ff010113          	add	sp,sp,-16
    40001074:	00113423          	sd	ra,8(sp)
    40001078:	00813023          	sd	s0,0(sp)
    4000107c:	01010413          	add	s0,sp,16
    40001080:	00018517          	auipc	a0,0x18
    40001084:	fd850513          	add	a0,a0,-40 # 40019058 <kernel_text_end+0x16058>
    40001088:	fffff097          	auipc	ra,0xfffff
    4000108c:	fa0080e7          	jalr	-96(ra) # 40000028 <printf>
    40001090:	00000097          	auipc	ra,0x0
    40001094:	fa0080e7          	jalr	-96(ra) # 40001030 <kernel_init>
    40001098:	00018517          	auipc	a0,0x18
    4000109c:	fc850513          	add	a0,a0,-56 # 40019060 <kernel_text_end+0x16060>
    400010a0:	fffff097          	auipc	ra,0xfffff
    400010a4:	f88080e7          	jalr	-120(ra) # 40000028 <printf>
    400010a8:	00000097          	auipc	ra,0x0
    400010ac:	ab8080e7          	jalr	-1352(ra) # 40000b60 <uart_init>
    400010b0:	00018517          	auipc	a0,0x18
    400010b4:	fb850513          	add	a0,a0,-72 # 40019068 <kernel_text_end+0x16068>
    400010b8:	fffff097          	auipc	ra,0xfffff
    400010bc:	f70080e7          	jalr	-144(ra) # 40000028 <printf>
    400010c0:	00001097          	auipc	ra,0x1
    400010c4:	ccc080e7          	jalr	-820(ra) # 40001d8c <console_init>
    400010c8:	0000006f          	j	400010c8 <main+0x58>

00000000400010cc <peripheral_init>:
    400010cc:	ff010113          	add	sp,sp,-16
    400010d0:	00113423          	sd	ra,8(sp)
    400010d4:	00813023          	sd	s0,0(sp)
    400010d8:	01010413          	add	s0,sp,16
    400010dc:	00000097          	auipc	ra,0x0
    400010e0:	a84080e7          	jalr	-1404(ra) # 40000b60 <uart_init>
    400010e4:	00813083          	ld	ra,8(sp)
    400010e8:	00013403          	ld	s0,0(sp)
    400010ec:	01010113          	add	sp,sp,16
    400010f0:	00008067          	ret

00000000400010f4 <spinlock_init>:
    400010f4:	ff010113          	add	sp,sp,-16
    400010f8:	00813423          	sd	s0,8(sp)
    400010fc:	01010413          	add	s0,sp,16
    40001100:	00813403          	ld	s0,8(sp)
    40001104:	01010113          	add	sp,sp,16
    40001108:	00008067          	ret

000000004000110c <spinlock_lock>:
    4000110c:	ff010113          	add	sp,sp,-16
    40001110:	00813423          	sd	s0,8(sp)
    40001114:	01010413          	add	s0,sp,16
    40001118:	00813403          	ld	s0,8(sp)
    4000111c:	01010113          	add	sp,sp,16
    40001120:	00008067          	ret

0000000040001124 <spinlock_unlock>:
    40001124:	ff010113          	add	sp,sp,-16
    40001128:	00813423          	sd	s0,8(sp)
    4000112c:	01010413          	add	s0,sp,16
    40001130:	00813403          	ld	s0,8(sp)
    40001134:	01010113          	add	sp,sp,16
    40001138:	00008067          	ret

000000004000113c <alloc_single_page>:
    4000113c:	fe010113          	add	sp,sp,-32
    40001140:	00113c23          	sd	ra,24(sp)
    40001144:	00813823          	sd	s0,16(sp)
    40001148:	00913423          	sd	s1,8(sp)
    4000114c:	02010413          	add	s0,sp,32
    40001150:	00019797          	auipc	a5,0x19
    40001154:	0d87b783          	ld	a5,216(a5) # 4001a228 <mem_page_list>
    40001158:	04078263          	beqz	a5,4000119c <alloc_single_page+0x60>
    4000115c:	00019797          	auipc	a5,0x19
    40001160:	0cc78793          	add	a5,a5,204 # 4001a228 <mem_page_list>
    40001164:	0007b483          	ld	s1,0(a5)
    40001168:	0004b703          	ld	a4,0(s1)
    4000116c:	00e7b023          	sd	a4,0(a5)
    40001170:	00001637          	lui	a2,0x1
    40001174:	00000593          	li	a1,0
    40001178:	00048513          	mv	a0,s1
    4000117c:	fffff097          	auipc	ra,0xfffff
    40001180:	70c080e7          	jalr	1804(ra) # 40000888 <memset>
    40001184:	00048513          	mv	a0,s1
    40001188:	01813083          	ld	ra,24(sp)
    4000118c:	01013403          	ld	s0,16(sp)
    40001190:	00813483          	ld	s1,8(sp)
    40001194:	02010113          	add	sp,sp,32
    40001198:	00008067          	ret
    4000119c:	00018617          	auipc	a2,0x18
    400011a0:	ed460613          	add	a2,a2,-300 # 40019070 <kernel_text_end+0x16070>
    400011a4:	04100593          	li	a1,65
    400011a8:	00018517          	auipc	a0,0x18
    400011ac:	ef850513          	add	a0,a0,-264 # 400190a0 <kernel_text_end+0x160a0>
    400011b0:	fffff097          	auipc	ra,0xfffff
    400011b4:	698080e7          	jalr	1688(ra) # 40000848 <panic>
    400011b8:	fa5ff06f          	j	4000115c <alloc_single_page+0x20>

00000000400011bc <free_single_page>:
    400011bc:	fe010113          	add	sp,sp,-32
    400011c0:	00113c23          	sd	ra,24(sp)
    400011c4:	00813823          	sd	s0,16(sp)
    400011c8:	00913423          	sd	s1,8(sp)
    400011cc:	02010413          	add	s0,sp,32
    400011d0:	00050493          	mv	s1,a0
    400011d4:	03451793          	sll	a5,a0,0x34
    400011d8:	00079e63          	bnez	a5,400011f4 <free_single_page+0x38>
    400011dc:	0011f797          	auipc	a5,0x11f
    400011e0:	e2478793          	add	a5,a5,-476 # 40120000 <kernel_end>
    400011e4:	00f56863          	bltu	a0,a5,400011f4 <free_single_page+0x38>
    400011e8:	03bff797          	auipc	a5,0x3bff
    400011ec:	e1778793          	add	a5,a5,-489 # 43bfffff <kernel_end+0x3adffff>
    400011f0:	02a7f063          	bgeu	a5,a0,40001210 <free_single_page+0x54>
    400011f4:	00018617          	auipc	a2,0x18
    400011f8:	ebc60613          	add	a2,a2,-324 # 400190b0 <kernel_text_end+0x160b0>
    400011fc:	05000593          	li	a1,80
    40001200:	00018517          	auipc	a0,0x18
    40001204:	ea050513          	add	a0,a0,-352 # 400190a0 <kernel_text_end+0x160a0>
    40001208:	fffff097          	auipc	ra,0xfffff
    4000120c:	640080e7          	jalr	1600(ra) # 40000848 <panic>
    40001210:	00001637          	lui	a2,0x1
    40001214:	0ff00593          	li	a1,255
    40001218:	00048513          	mv	a0,s1
    4000121c:	fffff097          	auipc	ra,0xfffff
    40001220:	66c080e7          	jalr	1644(ra) # 40000888 <memset>
    40001224:	00019797          	auipc	a5,0x19
    40001228:	00478793          	add	a5,a5,4 # 4001a228 <mem_page_list>
    4000122c:	0007b703          	ld	a4,0(a5)
    40001230:	00e4b023          	sd	a4,0(s1)
    40001234:	0097b023          	sd	s1,0(a5)
    40001238:	01813083          	ld	ra,24(sp)
    4000123c:	01013403          	ld	s0,16(sp)
    40001240:	00813483          	ld	s1,8(sp)
    40001244:	02010113          	add	sp,sp,32
    40001248:	00008067          	ret

000000004000124c <interrupt_enable>:
    4000124c:	ff010113          	add	sp,sp,-16
    40001250:	00813423          	sd	s0,8(sp)
    40001254:	01010413          	add	s0,sp,16
    40001258:	100027f3          	csrr	a5,sstatus
    4000125c:	0027e793          	or	a5,a5,2
    40001260:	10079073          	csrw	sstatus,a5
    40001264:	00813403          	ld	s0,8(sp)
    40001268:	01010113          	add	sp,sp,16
    4000126c:	00008067          	ret

0000000040001270 <interrupt_init>:
    40001270:	ff010113          	add	sp,sp,-16
    40001274:	00113423          	sd	ra,8(sp)
    40001278:	00813023          	sd	s0,0(sp)
    4000127c:	01010413          	add	s0,sp,16
    40001280:	fffff797          	auipc	a5,0xfffff
    40001284:	7d078793          	add	a5,a5,2000 # 40000a50 <k_interrupt_vector>
    40001288:	10579073          	csrw	stvec,a5
    4000128c:	00000097          	auipc	ra,0x0
    40001290:	9dc080e7          	jalr	-1572(ra) # 40000c68 <plic_interrupt_enable>
    40001294:	00000097          	auipc	ra,0x0
    40001298:	fb8080e7          	jalr	-72(ra) # 4000124c <interrupt_enable>
    4000129c:	00813083          	ld	ra,8(sp)
    400012a0:	00013403          	ld	s0,0(sp)
    400012a4:	01010113          	add	sp,sp,16
    400012a8:	00008067          	ret

00000000400012ac <interrupt_disable>:
    400012ac:	ff010113          	add	sp,sp,-16
    400012b0:	00813423          	sd	s0,8(sp)
    400012b4:	01010413          	add	s0,sp,16
    400012b8:	100027f3          	csrr	a5,sstatus
    400012bc:	ffc7f793          	and	a5,a5,-4
    400012c0:	10079073          	csrw	sstatus,a5
    400012c4:	00813403          	ld	s0,8(sp)
    400012c8:	01010113          	add	sp,sp,16
    400012cc:	00008067          	ret

00000000400012d0 <external_interrupt_handled>:
    400012d0:	ff010113          	add	sp,sp,-16
    400012d4:	00813423          	sd	s0,8(sp)
    400012d8:	01010413          	add	s0,sp,16
    400012dc:	102017b7          	lui	a5,0x10201
    400012e0:	00a7a223          	sw	a0,4(a5) # 10201004 <_start-0x2fdfeffc>
    400012e4:	00813403          	ld	s0,8(sp)
    400012e8:	01010113          	add	sp,sp,16
    400012ec:	00008067          	ret

00000000400012f0 <external_interrupt_handler>:
    400012f0:	fd010113          	add	sp,sp,-48
    400012f4:	02113423          	sd	ra,40(sp)
    400012f8:	02813023          	sd	s0,32(sp)
    400012fc:	00913c23          	sd	s1,24(sp)
    40001300:	03010413          	add	s0,sp,48
    40001304:	102017b7          	lui	a5,0x10201
    40001308:	00478793          	add	a5,a5,4 # 10201004 <_start-0x2fdfeffc>
    4000130c:	0007a783          	lw	a5,0(a5)
    40001310:	fcf42e23          	sw	a5,-36(s0)
    40001314:	fdc42483          	lw	s1,-36(s0)
    40001318:	0004849b          	sext.w	s1,s1
    4000131c:	01200793          	li	a5,18
    40001320:	04f48063          	beq	s1,a5,40001360 <external_interrupt_handler+0x70>
    40001324:	04b00793          	li	a5,75
    40001328:	00f49c63          	bne	s1,a5,40001340 <external_interrupt_handler+0x50>
    4000132c:	fffff097          	auipc	ra,0xfffff
    40001330:	608080e7          	jalr	1544(ra) # 40000934 <timestamp_update>
    40001334:	00000513          	li	a0,0
    40001338:	00000097          	auipc	ra,0x0
    4000133c:	a58080e7          	jalr	-1448(ra) # 40000d90 <timer_pending_clear>
    40001340:	00048513          	mv	a0,s1
    40001344:	00000097          	auipc	ra,0x0
    40001348:	f8c080e7          	jalr	-116(ra) # 400012d0 <external_interrupt_handled>
    4000134c:	02813083          	ld	ra,40(sp)
    40001350:	02013403          	ld	s0,32(sp)
    40001354:	01813483          	ld	s1,24(sp)
    40001358:	03010113          	add	sp,sp,48
    4000135c:	00008067          	ret
    40001360:	fdb40513          	add	a0,s0,-37
    40001364:	fffff097          	auipc	ra,0xfffff
    40001368:	440080e7          	jalr	1088(ra) # 400007a4 <getc>
    4000136c:	fc054ae3          	bltz	a0,40001340 <external_interrupt_handler+0x50>
    40001370:	fdb44503          	lbu	a0,-37(s0)
    40001374:	00001097          	auipc	ra,0x1
    40001378:	244080e7          	jalr	580(ra) # 400025b8 <console_get_char>
    4000137c:	fdb40513          	add	a0,s0,-37
    40001380:	fffff097          	auipc	ra,0xfffff
    40001384:	424080e7          	jalr	1060(ra) # 400007a4 <getc>
    40001388:	fe0554e3          	bgez	a0,40001370 <external_interrupt_handler+0x80>
    4000138c:	fb5ff06f          	j	40001340 <external_interrupt_handler+0x50>

0000000040001390 <interrupt_handler>:
    40001390:	14202773          	csrr	a4,scause
    40001394:	142027f3          	csrr	a5,scause
    40001398:	00074463          	bltz	a4,400013a0 <interrupt_handler+0x10>
    4000139c:	00008067          	ret
    400013a0:	00179793          	sll	a5,a5,0x1
    400013a4:	0017d793          	srl	a5,a5,0x1
    400013a8:	00900713          	li	a4,9
    400013ac:	fee798e3          	bne	a5,a4,4000139c <interrupt_handler+0xc>
    400013b0:	ff010113          	add	sp,sp,-16
    400013b4:	00113423          	sd	ra,8(sp)
    400013b8:	00813023          	sd	s0,0(sp)
    400013bc:	01010413          	add	s0,sp,16
    400013c0:	00000097          	auipc	ra,0x0
    400013c4:	f30080e7          	jalr	-208(ra) # 400012f0 <external_interrupt_handler>
    400013c8:	00813083          	ld	ra,8(sp)
    400013cc:	00013403          	ld	s0,0(sp)
    400013d0:	01010113          	add	sp,sp,16
    400013d4:	00008067          	ret

00000000400013d8 <timer_interrupt_handler>:
    400013d8:	ff010113          	add	sp,sp,-16
    400013dc:	00813423          	sd	s0,8(sp)
    400013e0:	01010413          	add	s0,sp,16
    400013e4:	00813403          	ld	s0,8(sp)
    400013e8:	01010113          	add	sp,sp,16
    400013ec:	00008067          	ret

00000000400013f0 <software_interrupt_handler>:
    400013f0:	ff010113          	add	sp,sp,-16
    400013f4:	00813423          	sd	s0,8(sp)
    400013f8:	01010413          	add	s0,sp,16
    400013fc:	00813403          	ld	s0,8(sp)
    40001400:	01010113          	add	sp,sp,16
    40001404:	00008067          	ret

0000000040001408 <pte_retrieve>:
    40001408:	fc010113          	add	sp,sp,-64
    4000140c:	02113c23          	sd	ra,56(sp)
    40001410:	02813823          	sd	s0,48(sp)
    40001414:	02913423          	sd	s1,40(sp)
    40001418:	03213023          	sd	s2,32(sp)
    4000141c:	01313c23          	sd	s3,24(sp)
    40001420:	01413823          	sd	s4,16(sp)
    40001424:	01513423          	sd	s5,8(sp)
    40001428:	04010413          	add	s0,sp,64
    4000142c:	00050493          	mv	s1,a0
    40001430:	00058993          	mv	s3,a1
    40001434:	fff00793          	li	a5,-1
    40001438:	0197d793          	srl	a5,a5,0x19
    4000143c:	06b7e663          	bltu	a5,a1,400014a8 <pte_retrieve+0xa0>
    40001440:	01e00a13          	li	s4,30
    40001444:	00c00a93          	li	s5,12
    40001448:	0149d933          	srl	s2,s3,s4
    4000144c:	1ff97913          	and	s2,s2,511
    40001450:	00391913          	sll	s2,s2,0x3
    40001454:	01248933          	add	s2,s1,s2
    40001458:	00093483          	ld	s1,0(s2)
    4000145c:	0014f793          	and	a5,s1,1
    40001460:	06078463          	beqz	a5,400014c8 <pte_retrieve+0xc0>
    40001464:	00a4d493          	srl	s1,s1,0xa
    40001468:	00c49493          	sll	s1,s1,0xc
    4000146c:	ff7a0a1b          	addw	s4,s4,-9
    40001470:	fd5a1ce3          	bne	s4,s5,40001448 <pte_retrieve+0x40>
    40001474:	00c9d513          	srl	a0,s3,0xc
    40001478:	1ff57513          	and	a0,a0,511
    4000147c:	00351513          	sll	a0,a0,0x3
    40001480:	00a48533          	add	a0,s1,a0
    40001484:	03813083          	ld	ra,56(sp)
    40001488:	03013403          	ld	s0,48(sp)
    4000148c:	02813483          	ld	s1,40(sp)
    40001490:	02013903          	ld	s2,32(sp)
    40001494:	01813983          	ld	s3,24(sp)
    40001498:	01013a03          	ld	s4,16(sp)
    4000149c:	00813a83          	ld	s5,8(sp)
    400014a0:	04010113          	add	sp,sp,64
    400014a4:	00008067          	ret
    400014a8:	00018617          	auipc	a2,0x18
    400014ac:	c3860613          	add	a2,a2,-968 # 400190e0 <kernel_text_end+0x160e0>
    400014b0:	0e400593          	li	a1,228
    400014b4:	00018517          	auipc	a0,0x18
    400014b8:	bec50513          	add	a0,a0,-1044 # 400190a0 <kernel_text_end+0x160a0>
    400014bc:	fffff097          	auipc	ra,0xfffff
    400014c0:	38c080e7          	jalr	908(ra) # 40000848 <panic>
    400014c4:	f7dff06f          	j	40001440 <pte_retrieve+0x38>
    400014c8:	00000097          	auipc	ra,0x0
    400014cc:	c74080e7          	jalr	-908(ra) # 4000113c <alloc_single_page>
    400014d0:	00050493          	mv	s1,a0
    400014d4:	00001637          	lui	a2,0x1
    400014d8:	00000593          	li	a1,0
    400014dc:	fffff097          	auipc	ra,0xfffff
    400014e0:	3ac080e7          	jalr	940(ra) # 40000888 <memset>
    400014e4:	00048c63          	beqz	s1,400014fc <pte_retrieve+0xf4>
    400014e8:	00c4d793          	srl	a5,s1,0xc
    400014ec:	00a79793          	sll	a5,a5,0xa
    400014f0:	0017e793          	or	a5,a5,1
    400014f4:	00f93023          	sd	a5,0(s2)
    400014f8:	f75ff06f          	j	4000146c <pte_retrieve+0x64>
    400014fc:	00018517          	auipc	a0,0x18
    40001500:	c0c50513          	add	a0,a0,-1012 # 40019108 <kernel_text_end+0x16108>
    40001504:	fffff097          	auipc	ra,0xfffff
    40001508:	b24080e7          	jalr	-1244(ra) # 40000028 <printf>
    4000150c:	00048513          	mv	a0,s1
    40001510:	f75ff06f          	j	40001484 <pte_retrieve+0x7c>

0000000040001514 <vm_map>:
    40001514:	fa010113          	add	sp,sp,-96
    40001518:	04113c23          	sd	ra,88(sp)
    4000151c:	04813823          	sd	s0,80(sp)
    40001520:	06010413          	add	s0,sp,96
    40001524:	06068663          	beqz	a3,40001590 <vm_map+0x7c>
    40001528:	03413823          	sd	s4,48(sp)
    4000152c:	03613023          	sd	s6,32(sp)
    40001530:	01713c23          	sd	s7,24(sp)
    40001534:	00050b13          	mv	s6,a0
    40001538:	00070b93          	mv	s7,a4
    4000153c:	fffff7b7          	lui	a5,0xfffff
    40001540:	00f5f5b3          	and	a1,a1,a5
    40001544:	00b686b3          	add	a3,a3,a1
    40001548:	00f6fa33          	and	s4,a3,a5
    4000154c:	00f67633          	and	a2,a2,a5
    40001550:	1345fe63          	bgeu	a1,s4,4000168c <vm_map+0x178>
    40001554:	04913423          	sd	s1,72(sp)
    40001558:	05213023          	sd	s2,64(sp)
    4000155c:	03313c23          	sd	s3,56(sp)
    40001560:	03513423          	sd	s5,40(sp)
    40001564:	01813823          	sd	s8,16(sp)
    40001568:	01913423          	sd	s9,8(sp)
    4000156c:	01a13023          	sd	s10,0(sp)
    40001570:	00058993          	mv	s3,a1
    40001574:	40b60ab3          	sub	s5,a2,a1
    40001578:	00018d17          	auipc	s10,0x18
    4000157c:	be0d0d13          	add	s10,s10,-1056 # 40019158 <kernel_text_end+0x16158>
    40001580:	00018c97          	auipc	s9,0x18
    40001584:	b20c8c93          	add	s9,s9,-1248 # 400190a0 <kernel_text_end+0x160a0>
    40001588:	00001c37          	lui	s8,0x1
    4000158c:	0900006f          	j	4000161c <vm_map+0x108>
    40001590:	00018617          	auipc	a2,0x18
    40001594:	b9060613          	add	a2,a2,-1136 # 40019120 <kernel_text_end+0x16120>
    40001598:	0c300593          	li	a1,195
    4000159c:	00018517          	auipc	a0,0x18
    400015a0:	b0450513          	add	a0,a0,-1276 # 400190a0 <kernel_text_end+0x160a0>
    400015a4:	fffff097          	auipc	ra,0xfffff
    400015a8:	2a4080e7          	jalr	676(ra) # 40000848 <panic>
    400015ac:	00000513          	li	a0,0
    400015b0:	0400006f          	j	400015f0 <vm_map+0xdc>
    400015b4:	00018517          	auipc	a0,0x18
    400015b8:	b8c50513          	add	a0,a0,-1140 # 40019140 <kernel_text_end+0x16140>
    400015bc:	fffff097          	auipc	ra,0xfffff
    400015c0:	a6c080e7          	jalr	-1428(ra) # 40000028 <printf>
    400015c4:	fff00513          	li	a0,-1
    400015c8:	04813483          	ld	s1,72(sp)
    400015cc:	04013903          	ld	s2,64(sp)
    400015d0:	03813983          	ld	s3,56(sp)
    400015d4:	03013a03          	ld	s4,48(sp)
    400015d8:	02813a83          	ld	s5,40(sp)
    400015dc:	02013b03          	ld	s6,32(sp)
    400015e0:	01813b83          	ld	s7,24(sp)
    400015e4:	01013c03          	ld	s8,16(sp)
    400015e8:	00813c83          	ld	s9,8(sp)
    400015ec:	00013d03          	ld	s10,0(sp)
    400015f0:	05813083          	ld	ra,88(sp)
    400015f4:	05013403          	ld	s0,80(sp)
    400015f8:	06010113          	add	sp,sp,96
    400015fc:	00008067          	ret
    40001600:	00c4d493          	srl	s1,s1,0xc
    40001604:	00a49493          	sll	s1,s1,0xa
    40001608:	0174e4b3          	or	s1,s1,s7
    4000160c:	0014e493          	or	s1,s1,1
    40001610:	00993023          	sd	s1,0(s2)
    40001614:	018989b3          	add	s3,s3,s8
    40001618:	0549f263          	bgeu	s3,s4,4000165c <vm_map+0x148>
    4000161c:	013a84b3          	add	s1,s5,s3
    40001620:	00098593          	mv	a1,s3
    40001624:	000b0513          	mv	a0,s6
    40001628:	00000097          	auipc	ra,0x0
    4000162c:	de0080e7          	jalr	-544(ra) # 40001408 <pte_retrieve>
    40001630:	00050913          	mv	s2,a0
    40001634:	f80500e3          	beqz	a0,400015b4 <vm_map+0xa0>
    40001638:	00053783          	ld	a5,0(a0)
    4000163c:	0017f793          	and	a5,a5,1
    40001640:	fc0780e3          	beqz	a5,40001600 <vm_map+0xec>
    40001644:	000d0613          	mv	a2,s10
    40001648:	0d700593          	li	a1,215
    4000164c:	000c8513          	mv	a0,s9
    40001650:	fffff097          	auipc	ra,0xfffff
    40001654:	1f8080e7          	jalr	504(ra) # 40000848 <panic>
    40001658:	fa9ff06f          	j	40001600 <vm_map+0xec>
    4000165c:	00000513          	li	a0,0
    40001660:	04813483          	ld	s1,72(sp)
    40001664:	04013903          	ld	s2,64(sp)
    40001668:	03813983          	ld	s3,56(sp)
    4000166c:	03013a03          	ld	s4,48(sp)
    40001670:	02813a83          	ld	s5,40(sp)
    40001674:	02013b03          	ld	s6,32(sp)
    40001678:	01813b83          	ld	s7,24(sp)
    4000167c:	01013c03          	ld	s8,16(sp)
    40001680:	00813c83          	ld	s9,8(sp)
    40001684:	00013d03          	ld	s10,0(sp)
    40001688:	f69ff06f          	j	400015f0 <vm_map+0xdc>
    4000168c:	00000513          	li	a0,0
    40001690:	03013a03          	ld	s4,48(sp)
    40001694:	02013b03          	ld	s6,32(sp)
    40001698:	01813b83          	ld	s7,24(sp)
    4000169c:	f55ff06f          	j	400015f0 <vm_map+0xdc>

00000000400016a0 <set_vm_pagetable>:
    400016a0:	ff010113          	add	sp,sp,-16
    400016a4:	00813423          	sd	s0,8(sp)
    400016a8:	01010413          	add	s0,sp,16
    400016ac:	12000073          	sfence.vma
    400016b0:	00c55513          	srl	a0,a0,0xc
    400016b4:	fff00793          	li	a5,-1
    400016b8:	03f79793          	sll	a5,a5,0x3f
    400016bc:	00f56533          	or	a0,a0,a5
    400016c0:	18051073          	csrw	satp,a0
    400016c4:	12000073          	sfence.vma
    400016c8:	00813403          	ld	s0,8(sp)
    400016cc:	01010113          	add	sp,sp,16
    400016d0:	00008067          	ret

00000000400016d4 <print_char>:
    400016d4:	ff010113          	add	sp,sp,-16
    400016d8:	00113423          	sd	ra,8(sp)
    400016dc:	00813023          	sd	s0,0(sp)
    400016e0:	01010413          	add	s0,sp,16
    400016e4:	fffff097          	auipc	ra,0xfffff
    400016e8:	4ac080e7          	jalr	1196(ra) # 40000b90 <uart_print_char>
    400016ec:	00813083          	ld	ra,8(sp)
    400016f0:	00013403          	ld	s0,0(sp)
    400016f4:	01010113          	add	sp,sp,16
    400016f8:	00008067          	ret

00000000400016fc <print_str>:
    400016fc:	ff010113          	add	sp,sp,-16
    40001700:	00113423          	sd	ra,8(sp)
    40001704:	00813023          	sd	s0,0(sp)
    40001708:	01010413          	add	s0,sp,16
    4000170c:	fffff097          	auipc	ra,0xfffff
    40001710:	514080e7          	jalr	1300(ra) # 40000c20 <uart_print_str>
    40001714:	00813083          	ld	ra,8(sp)
    40001718:	00013403          	ld	s0,0(sp)
    4000171c:	01010113          	add	sp,sp,16
    40001720:	00008067          	ret

0000000040001724 <scan_char>:
    40001724:	ff010113          	add	sp,sp,-16
    40001728:	00113423          	sd	ra,8(sp)
    4000172c:	00813023          	sd	s0,0(sp)
    40001730:	01010413          	add	s0,sp,16
    40001734:	fffff097          	auipc	ra,0xfffff
    40001738:	49c080e7          	jalr	1180(ra) # 40000bd0 <uart_scan_char>
    4000173c:	00813083          	ld	ra,8(sp)
    40001740:	00013403          	ld	s0,0(sp)
    40001744:	01010113          	add	sp,sp,16
    40001748:	00008067          	ret

000000004000174c <k_spinlock_init>:
    4000174c:	ff010113          	add	sp,sp,-16
    40001750:	00113423          	sd	ra,8(sp)
    40001754:	00813023          	sd	s0,0(sp)
    40001758:	01010413          	add	s0,sp,16
    4000175c:	00000097          	auipc	ra,0x0
    40001760:	998080e7          	jalr	-1640(ra) # 400010f4 <spinlock_init>
    40001764:	00813083          	ld	ra,8(sp)
    40001768:	00013403          	ld	s0,0(sp)
    4000176c:	01010113          	add	sp,sp,16
    40001770:	00008067          	ret

0000000040001774 <k_spinlock_lock>:
    40001774:	ff010113          	add	sp,sp,-16
    40001778:	00113423          	sd	ra,8(sp)
    4000177c:	00813023          	sd	s0,0(sp)
    40001780:	01010413          	add	s0,sp,16
    40001784:	00000097          	auipc	ra,0x0
    40001788:	988080e7          	jalr	-1656(ra) # 4000110c <spinlock_lock>
    4000178c:	00813083          	ld	ra,8(sp)
    40001790:	00013403          	ld	s0,0(sp)
    40001794:	01010113          	add	sp,sp,16
    40001798:	00008067          	ret

000000004000179c <k_spinlock_unlock>:
    4000179c:	ff010113          	add	sp,sp,-16
    400017a0:	00113423          	sd	ra,8(sp)
    400017a4:	00813023          	sd	s0,0(sp)
    400017a8:	01010413          	add	s0,sp,16
    400017ac:	00000097          	auipc	ra,0x0
    400017b0:	978080e7          	jalr	-1672(ra) # 40001124 <spinlock_unlock>
    400017b4:	00813083          	ld	ra,8(sp)
    400017b8:	00013403          	ld	s0,0(sp)
    400017bc:	01010113          	add	sp,sp,16
    400017c0:	00008067          	ret

00000000400017c4 <k_pagetable_init>:
    400017c4:	fe010113          	add	sp,sp,-32
    400017c8:	00113c23          	sd	ra,24(sp)
    400017cc:	00813823          	sd	s0,16(sp)
    400017d0:	00913423          	sd	s1,8(sp)
    400017d4:	01213023          	sd	s2,0(sp)
    400017d8:	02010413          	add	s0,sp,32
    400017dc:	00000097          	auipc	ra,0x0
    400017e0:	1e0080e7          	jalr	480(ra) # 400019bc <k_alloc_single_page>
    400017e4:	00019797          	auipc	a5,0x19
    400017e8:	a4a7b623          	sd	a0,-1460(a5) # 4001a230 <kernel_pagetable>
    400017ec:	fffff917          	auipc	s2,0xfffff
    400017f0:	81490913          	add	s2,s2,-2028 # 40000000 <_start>
    400017f4:	fff00713          	li	a4,-1
    400017f8:	03f71713          	sll	a4,a4,0x3f
    400017fc:	0c670713          	add	a4,a4,198
    40001800:	00090693          	mv	a3,s2
    40001804:	00000613          	li	a2,0
    40001808:	00000593          	li	a1,0
    4000180c:	00019517          	auipc	a0,0x19
    40001810:	a2453503          	ld	a0,-1500(a0) # 4001a230 <kernel_pagetable>
    40001814:	00000097          	auipc	ra,0x0
    40001818:	d00080e7          	jalr	-768(ra) # 40001514 <vm_map>
    4000181c:	00001497          	auipc	s1,0x1
    40001820:	7e448493          	add	s1,s1,2020 # 40003000 <kernel_text_end>
    40001824:	00300713          	li	a4,3
    40001828:	03d71713          	sll	a4,a4,0x3d
    4000182c:	04a70713          	add	a4,a4,74
    40001830:	412486b3          	sub	a3,s1,s2
    40001834:	00090613          	mv	a2,s2
    40001838:	00090593          	mv	a1,s2
    4000183c:	00019517          	auipc	a0,0x19
    40001840:	9f453503          	ld	a0,-1548(a0) # 4001a230 <kernel_pagetable>
    40001844:	00000097          	auipc	ra,0x0
    40001848:	cd0080e7          	jalr	-816(ra) # 40001514 <vm_map>
    4000184c:	00300713          	li	a4,3
    40001850:	03d71713          	sll	a4,a4,0x3d
    40001854:	0c670713          	add	a4,a4,198
    40001858:	03bfe697          	auipc	a3,0x3bfe
    4000185c:	7a768693          	add	a3,a3,1959 # 43bfffff <kernel_end+0x3adffff>
    40001860:	409686b3          	sub	a3,a3,s1
    40001864:	00048613          	mv	a2,s1
    40001868:	00048593          	mv	a1,s1
    4000186c:	00019517          	auipc	a0,0x19
    40001870:	9c453503          	ld	a0,-1596(a0) # 4001a230 <kernel_pagetable>
    40001874:	00000097          	auipc	ra,0x0
    40001878:	ca0080e7          	jalr	-864(ra) # 40001514 <vm_map>
    4000187c:	01813083          	ld	ra,24(sp)
    40001880:	01013403          	ld	s0,16(sp)
    40001884:	00813483          	ld	s1,8(sp)
    40001888:	00013903          	ld	s2,0(sp)
    4000188c:	02010113          	add	sp,sp,32
    40001890:	00008067          	ret

0000000040001894 <k_vm_enable>:
    40001894:	ff010113          	add	sp,sp,-16
    40001898:	00113423          	sd	ra,8(sp)
    4000189c:	00813023          	sd	s0,0(sp)
    400018a0:	01010413          	add	s0,sp,16
    400018a4:	00019517          	auipc	a0,0x19
    400018a8:	98c53503          	ld	a0,-1652(a0) # 4001a230 <kernel_pagetable>
    400018ac:	00000097          	auipc	ra,0x0
    400018b0:	df4080e7          	jalr	-524(ra) # 400016a0 <set_vm_pagetable>
    400018b4:	00813083          	ld	ra,8(sp)
    400018b8:	00013403          	ld	s0,0(sp)
    400018bc:	01010113          	add	sp,sp,16
    400018c0:	00008067          	ret

00000000400018c4 <k_free_pages>:
    400018c4:	fd010113          	add	sp,sp,-48
    400018c8:	02113423          	sd	ra,40(sp)
    400018cc:	02813023          	sd	s0,32(sp)
    400018d0:	00913c23          	sd	s1,24(sp)
    400018d4:	03010413          	add	s0,sp,48
    400018d8:	000017b7          	lui	a5,0x1
    400018dc:	fff78793          	add	a5,a5,-1 # fff <_start-0x3ffff001>
    400018e0:	00f504b3          	add	s1,a0,a5
    400018e4:	fffff7b7          	lui	a5,0xfffff
    400018e8:	00f4f4b3          	and	s1,s1,a5
    400018ec:	000087b7          	lui	a5,0x8
    400018f0:	00f484b3          	add	s1,s1,a5
    400018f4:	0295ee63          	bltu	a1,s1,40001930 <k_free_pages+0x6c>
    400018f8:	01213823          	sd	s2,16(sp)
    400018fc:	01313423          	sd	s3,8(sp)
    40001900:	01413023          	sd	s4,0(sp)
    40001904:	00058913          	mv	s2,a1
    40001908:	ffff8a37          	lui	s4,0xffff8
    4000190c:	000089b7          	lui	s3,0x8
    40001910:	01448533          	add	a0,s1,s4
    40001914:	00000097          	auipc	ra,0x0
    40001918:	8a8080e7          	jalr	-1880(ra) # 400011bc <free_single_page>
    4000191c:	013484b3          	add	s1,s1,s3
    40001920:	fe9978e3          	bgeu	s2,s1,40001910 <k_free_pages+0x4c>
    40001924:	01013903          	ld	s2,16(sp)
    40001928:	00813983          	ld	s3,8(sp)
    4000192c:	00013a03          	ld	s4,0(sp)
    40001930:	02813083          	ld	ra,40(sp)
    40001934:	02013403          	ld	s0,32(sp)
    40001938:	01813483          	ld	s1,24(sp)
    4000193c:	03010113          	add	sp,sp,48
    40001940:	00008067          	ret

0000000040001944 <k_mem_paging_init>:
    40001944:	ff010113          	add	sp,sp,-16
    40001948:	00113423          	sd	ra,8(sp)
    4000194c:	00813023          	sd	s0,0(sp)
    40001950:	01010413          	add	s0,sp,16
    40001954:	00018597          	auipc	a1,0x18
    40001958:	82458593          	add	a1,a1,-2012 # 40019178 <kernel_text_end+0x16178>
    4000195c:	0001d517          	auipc	a0,0x1d
    40001960:	a0450513          	add	a0,a0,-1532 # 4001e360 <mem_paging_spinlock>
    40001964:	00000097          	auipc	ra,0x0
    40001968:	de8080e7          	jalr	-536(ra) # 4000174c <k_spinlock_init>
    4000196c:	03bfe597          	auipc	a1,0x3bfe
    40001970:	69358593          	add	a1,a1,1683 # 43bfffff <kernel_end+0x3adffff>
    40001974:	0011e517          	auipc	a0,0x11e
    40001978:	68c50513          	add	a0,a0,1676 # 40120000 <kernel_end>
    4000197c:	00000097          	auipc	ra,0x0
    40001980:	f48080e7          	jalr	-184(ra) # 400018c4 <k_free_pages>
    40001984:	00813083          	ld	ra,8(sp)
    40001988:	00013403          	ld	s0,0(sp)
    4000198c:	01010113          	add	sp,sp,16
    40001990:	00008067          	ret

0000000040001994 <k_free_single_page>:
    40001994:	ff010113          	add	sp,sp,-16
    40001998:	00113423          	sd	ra,8(sp)
    4000199c:	00813023          	sd	s0,0(sp)
    400019a0:	01010413          	add	s0,sp,16
    400019a4:	00000097          	auipc	ra,0x0
    400019a8:	818080e7          	jalr	-2024(ra) # 400011bc <free_single_page>
    400019ac:	00813083          	ld	ra,8(sp)
    400019b0:	00013403          	ld	s0,0(sp)
    400019b4:	01010113          	add	sp,sp,16
    400019b8:	00008067          	ret

00000000400019bc <k_alloc_single_page>:
    400019bc:	ff010113          	add	sp,sp,-16
    400019c0:	00113423          	sd	ra,8(sp)
    400019c4:	00813023          	sd	s0,0(sp)
    400019c8:	01010413          	add	s0,sp,16
    400019cc:	fffff097          	auipc	ra,0xfffff
    400019d0:	770080e7          	jalr	1904(ra) # 4000113c <alloc_single_page>
    400019d4:	00813083          	ld	ra,8(sp)
    400019d8:	00013403          	ld	s0,0(sp)
    400019dc:	01010113          	add	sp,sp,16
    400019e0:	00008067          	ret

00000000400019e4 <k_interrupt_init>:
    400019e4:	ff010113          	add	sp,sp,-16
    400019e8:	00113423          	sd	ra,8(sp)
    400019ec:	00813023          	sd	s0,0(sp)
    400019f0:	01010413          	add	s0,sp,16
    400019f4:	00000097          	auipc	ra,0x0
    400019f8:	87c080e7          	jalr	-1924(ra) # 40001270 <interrupt_init>
    400019fc:	00813083          	ld	ra,8(sp)
    40001a00:	00013403          	ld	s0,0(sp)
    40001a04:	01010113          	add	sp,sp,16
    40001a08:	00008067          	ret

0000000040001a0c <k_interrupt_handler>:
    40001a0c:	ff010113          	add	sp,sp,-16
    40001a10:	00113423          	sd	ra,8(sp)
    40001a14:	00813023          	sd	s0,0(sp)
    40001a18:	01010413          	add	s0,sp,16
    40001a1c:	00000097          	auipc	ra,0x0
    40001a20:	974080e7          	jalr	-1676(ra) # 40001390 <interrupt_handler>
    40001a24:	00813083          	ld	ra,8(sp)
    40001a28:	00013403          	ld	s0,0(sp)
    40001a2c:	01010113          	add	sp,sp,16
    40001a30:	00008067          	ret

0000000040001a34 <retrieve_command_history>:
    40001a34:	fd010113          	add	sp,sp,-48
    40001a38:	02113423          	sd	ra,40(sp)
    40001a3c:	02813023          	sd	s0,32(sp)
    40001a40:	03010413          	add	s0,sp,48
    40001a44:	10051c63          	bnez	a0,40001b5c <retrieve_command_history+0x128>
    40001a48:	00913c23          	sd	s1,24(sp)
    40001a4c:	00050493          	mv	s1,a0
    40001a50:	00018797          	auipc	a5,0x18
    40001a54:	7f07a783          	lw	a5,2032(a5) # 4001a240 <cmd_history_cur>
    40001a58:	00079663          	bnez	a5,40001a64 <retrieve_command_history+0x30>
    40001a5c:	01813483          	ld	s1,24(sp)
    40001a60:	20c0006f          	j	40001c6c <retrieve_command_history+0x238>
    40001a64:	01213823          	sd	s2,16(sp)
    40001a68:	00017517          	auipc	a0,0x17
    40001a6c:	72850513          	add	a0,a0,1832 # 40019190 <kernel_text_end+0x16190>
    40001a70:	ffffe097          	auipc	ra,0xffffe
    40001a74:	5b8080e7          	jalr	1464(ra) # 40000028 <printf>
    40001a78:	00018717          	auipc	a4,0x18
    40001a7c:	7d072703          	lw	a4,2000(a4) # 4001a248 <cmd_buf_idx>
    40001a80:	fff00793          	li	a5,-1
    40001a84:	02f74c63          	blt	a4,a5,40001abc <retrieve_command_history+0x88>
    40001a88:	01313423          	sd	s3,8(sp)
    40001a8c:	00017997          	auipc	s3,0x17
    40001a90:	70c98993          	add	s3,s3,1804 # 40019198 <kernel_text_end+0x16198>
    40001a94:	00018917          	auipc	s2,0x18
    40001a98:	7b490913          	add	s2,s2,1972 # 4001a248 <cmd_buf_idx>
    40001a9c:	00098513          	mv	a0,s3
    40001aa0:	ffffe097          	auipc	ra,0xffffe
    40001aa4:	588080e7          	jalr	1416(ra) # 40000028 <printf>
    40001aa8:	00048793          	mv	a5,s1
    40001aac:	0014849b          	addw	s1,s1,1
    40001ab0:	00092703          	lw	a4,0(s2)
    40001ab4:	fef754e3          	bge	a4,a5,40001a9c <retrieve_command_history+0x68>
    40001ab8:	00813983          	ld	s3,8(sp)
    40001abc:	00017517          	auipc	a0,0x17
    40001ac0:	6e450513          	add	a0,a0,1764 # 400191a0 <kernel_text_end+0x161a0>
    40001ac4:	ffffe097          	auipc	ra,0xffffe
    40001ac8:	564080e7          	jalr	1380(ra) # 40000028 <printf>
    40001acc:	0001d497          	auipc	s1,0x1d
    40001ad0:	8ac48493          	add	s1,s1,-1876 # 4001e378 <cmd_buf>
    40001ad4:	40000613          	li	a2,1024
    40001ad8:	00000593          	li	a1,0
    40001adc:	00048513          	mv	a0,s1
    40001ae0:	fffff097          	auipc	ra,0xfffff
    40001ae4:	da8080e7          	jalr	-600(ra) # 40000888 <memset>
    40001ae8:	00018917          	auipc	s2,0x18
    40001aec:	75890913          	add	s2,s2,1880 # 4001a240 <cmd_history_cur>
    40001af0:	00092783          	lw	a5,0(s2)
    40001af4:	fff7879b          	addw	a5,a5,-1
    40001af8:	0007859b          	sext.w	a1,a5
    40001afc:	00f92023          	sw	a5,0(s2)
    40001b00:	00a59793          	sll	a5,a1,0xa
    40001b04:	0001e597          	auipc	a1,0x1e
    40001b08:	c7458593          	add	a1,a1,-908 # 4001f778 <cmd_history>
    40001b0c:	00f585b3          	add	a1,a1,a5
    40001b10:	00048513          	mv	a0,s1
    40001b14:	fffff097          	auipc	ra,0xfffff
    40001b18:	ec4080e7          	jalr	-316(ra) # 400009d8 <strcpy>
    40001b1c:	00092703          	lw	a4,0(s2)
    40001b20:	00271713          	sll	a4,a4,0x2
    40001b24:	0001d797          	auipc	a5,0x1d
    40001b28:	c5478793          	add	a5,a5,-940 # 4001e778 <cmd_history_len>
    40001b2c:	00e787b3          	add	a5,a5,a4
    40001b30:	0007a783          	lw	a5,0(a5)
    40001b34:	00018717          	auipc	a4,0x18
    40001b38:	70f72a23          	sw	a5,1812(a4) # 4001a248 <cmd_buf_idx>
    40001b3c:	00048593          	mv	a1,s1
    40001b40:	00017517          	auipc	a0,0x17
    40001b44:	66850513          	add	a0,a0,1640 # 400191a8 <kernel_text_end+0x161a8>
    40001b48:	ffffe097          	auipc	ra,0xffffe
    40001b4c:	4e0080e7          	jalr	1248(ra) # 40000028 <printf>
    40001b50:	01813483          	ld	s1,24(sp)
    40001b54:	01013903          	ld	s2,16(sp)
    40001b58:	1140006f          	j	40001c6c <retrieve_command_history+0x238>
    40001b5c:	00018717          	auipc	a4,0x18
    40001b60:	6e472703          	lw	a4,1764(a4) # 4001a240 <cmd_history_cur>
    40001b64:	00018797          	auipc	a5,0x18
    40001b68:	6e07a783          	lw	a5,1760(a5) # 4001a244 <cmd_history_cnt>
    40001b6c:	10f70063          	beq	a4,a5,40001c6c <retrieve_command_history+0x238>
    40001b70:	00913c23          	sd	s1,24(sp)
    40001b74:	01213823          	sd	s2,16(sp)
    40001b78:	00017517          	auipc	a0,0x17
    40001b7c:	61850513          	add	a0,a0,1560 # 40019190 <kernel_text_end+0x16190>
    40001b80:	ffffe097          	auipc	ra,0xffffe
    40001b84:	4a8080e7          	jalr	1192(ra) # 40000028 <printf>
    40001b88:	00018717          	auipc	a4,0x18
    40001b8c:	6c072703          	lw	a4,1728(a4) # 4001a248 <cmd_buf_idx>
    40001b90:	fff00793          	li	a5,-1
    40001b94:	02f74e63          	blt	a4,a5,40001bd0 <retrieve_command_history+0x19c>
    40001b98:	01313423          	sd	s3,8(sp)
    40001b9c:	00000493          	li	s1,0
    40001ba0:	00017997          	auipc	s3,0x17
    40001ba4:	5f898993          	add	s3,s3,1528 # 40019198 <kernel_text_end+0x16198>
    40001ba8:	00018917          	auipc	s2,0x18
    40001bac:	6a090913          	add	s2,s2,1696 # 4001a248 <cmd_buf_idx>
    40001bb0:	00098513          	mv	a0,s3
    40001bb4:	ffffe097          	auipc	ra,0xffffe
    40001bb8:	474080e7          	jalr	1140(ra) # 40000028 <printf>
    40001bbc:	00048793          	mv	a5,s1
    40001bc0:	0014849b          	addw	s1,s1,1
    40001bc4:	00092703          	lw	a4,0(s2)
    40001bc8:	fef754e3          	bge	a4,a5,40001bb0 <retrieve_command_history+0x17c>
    40001bcc:	00813983          	ld	s3,8(sp)
    40001bd0:	00017517          	auipc	a0,0x17
    40001bd4:	5d050513          	add	a0,a0,1488 # 400191a0 <kernel_text_end+0x161a0>
    40001bd8:	ffffe097          	auipc	ra,0xffffe
    40001bdc:	450080e7          	jalr	1104(ra) # 40000028 <printf>
    40001be0:	0001c497          	auipc	s1,0x1c
    40001be4:	79848493          	add	s1,s1,1944 # 4001e378 <cmd_buf>
    40001be8:	40000613          	li	a2,1024
    40001bec:	00000593          	li	a1,0
    40001bf0:	00048513          	mv	a0,s1
    40001bf4:	fffff097          	auipc	ra,0xfffff
    40001bf8:	c94080e7          	jalr	-876(ra) # 40000888 <memset>
    40001bfc:	00018917          	auipc	s2,0x18
    40001c00:	64490913          	add	s2,s2,1604 # 4001a240 <cmd_history_cur>
    40001c04:	00092783          	lw	a5,0(s2)
    40001c08:	0017879b          	addw	a5,a5,1
    40001c0c:	0007859b          	sext.w	a1,a5
    40001c10:	00f92023          	sw	a5,0(s2)
    40001c14:	00a59793          	sll	a5,a1,0xa
    40001c18:	0001e597          	auipc	a1,0x1e
    40001c1c:	b6058593          	add	a1,a1,-1184 # 4001f778 <cmd_history>
    40001c20:	00f585b3          	add	a1,a1,a5
    40001c24:	00048513          	mv	a0,s1
    40001c28:	fffff097          	auipc	ra,0xfffff
    40001c2c:	db0080e7          	jalr	-592(ra) # 400009d8 <strcpy>
    40001c30:	00092703          	lw	a4,0(s2)
    40001c34:	00271713          	sll	a4,a4,0x2
    40001c38:	0001d797          	auipc	a5,0x1d
    40001c3c:	b4078793          	add	a5,a5,-1216 # 4001e778 <cmd_history_len>
    40001c40:	00e787b3          	add	a5,a5,a4
    40001c44:	0007a783          	lw	a5,0(a5)
    40001c48:	00018717          	auipc	a4,0x18
    40001c4c:	60f72023          	sw	a5,1536(a4) # 4001a248 <cmd_buf_idx>
    40001c50:	00048593          	mv	a1,s1
    40001c54:	00017517          	auipc	a0,0x17
    40001c58:	55450513          	add	a0,a0,1364 # 400191a8 <kernel_text_end+0x161a8>
    40001c5c:	ffffe097          	auipc	ra,0xffffe
    40001c60:	3cc080e7          	jalr	972(ra) # 40000028 <printf>
    40001c64:	01813483          	ld	s1,24(sp)
    40001c68:	01013903          	ld	s2,16(sp)
    40001c6c:	02813083          	ld	ra,40(sp)
    40001c70:	02013403          	ld	s0,32(sp)
    40001c74:	03010113          	add	sp,sp,48
    40001c78:	00008067          	ret

0000000040001c7c <add_command_history>:
    40001c7c:	fe010113          	add	sp,sp,-32
    40001c80:	00113c23          	sd	ra,24(sp)
    40001c84:	00813823          	sd	s0,16(sp)
    40001c88:	00913423          	sd	s1,8(sp)
    40001c8c:	01213023          	sd	s2,0(sp)
    40001c90:	02010413          	add	s0,sp,32
    40001c94:	00018497          	auipc	s1,0x18
    40001c98:	5b048493          	add	s1,s1,1456 # 4001a244 <cmd_history_cnt>
    40001c9c:	0004a503          	lw	a0,0(s1)
    40001ca0:	0015079b          	addw	a5,a0,1
    40001ca4:	00f4a023          	sw	a5,0(s1)
    40001ca8:	00a51513          	sll	a0,a0,0xa
    40001cac:	0001e917          	auipc	s2,0x1e
    40001cb0:	acc90913          	add	s2,s2,-1332 # 4001f778 <cmd_history>
    40001cb4:	40000613          	li	a2,1024
    40001cb8:	00000593          	li	a1,0
    40001cbc:	00a90533          	add	a0,s2,a0
    40001cc0:	fffff097          	auipc	ra,0xfffff
    40001cc4:	bc8080e7          	jalr	-1080(ra) # 40000888 <memset>
    40001cc8:	0004a503          	lw	a0,0(s1)
    40001ccc:	fff5051b          	addw	a0,a0,-1
    40001cd0:	00a51513          	sll	a0,a0,0xa
    40001cd4:	0001c597          	auipc	a1,0x1c
    40001cd8:	6a458593          	add	a1,a1,1700 # 4001e378 <cmd_buf>
    40001cdc:	00a90533          	add	a0,s2,a0
    40001ce0:	fffff097          	auipc	ra,0xfffff
    40001ce4:	cf8080e7          	jalr	-776(ra) # 400009d8 <strcpy>
    40001ce8:	0004a683          	lw	a3,0(s1)
    40001cec:	fff6871b          	addw	a4,a3,-1
    40001cf0:	00271713          	sll	a4,a4,0x2
    40001cf4:	0001d797          	auipc	a5,0x1d
    40001cf8:	a8478793          	add	a5,a5,-1404 # 4001e778 <cmd_history_len>
    40001cfc:	00e787b3          	add	a5,a5,a4
    40001d00:	00018717          	auipc	a4,0x18
    40001d04:	54872703          	lw	a4,1352(a4) # 4001a248 <cmd_buf_idx>
    40001d08:	00e7a023          	sw	a4,0(a5)
    40001d0c:	00018797          	auipc	a5,0x18
    40001d10:	52d7aa23          	sw	a3,1332(a5) # 4001a240 <cmd_history_cur>
    40001d14:	01813083          	ld	ra,24(sp)
    40001d18:	01013403          	ld	s0,16(sp)
    40001d1c:	00813483          	ld	s1,8(sp)
    40001d20:	00013903          	ld	s2,0(sp)
    40001d24:	02010113          	add	sp,sp,32
    40001d28:	00008067          	ret

0000000040001d2c <command_empty>:
    40001d2c:	ff010113          	add	sp,sp,-16
    40001d30:	00813423          	sd	s0,8(sp)
    40001d34:	01010413          	add	s0,sp,16
    40001d38:	00018517          	auipc	a0,0x18
    40001d3c:	51052503          	lw	a0,1296(a0) # 4001a248 <cmd_buf_idx>
    40001d40:	02a05a63          	blez	a0,40001d74 <command_empty+0x48>
    40001d44:	0001c797          	auipc	a5,0x1c
    40001d48:	63478793          	add	a5,a5,1588 # 4001e378 <cmd_buf>
    40001d4c:	00f50633          	add	a2,a0,a5
    40001d50:	00000593          	li	a1,0
    40001d54:	02000693          	li	a3,32
    40001d58:	00c0006f          	j	40001d64 <command_empty+0x38>
    40001d5c:	00178793          	add	a5,a5,1
    40001d60:	00c78c63          	beq	a5,a2,40001d78 <command_empty+0x4c>
    40001d64:	0007c703          	lbu	a4,0(a5)
    40001d68:	fed71ae3          	bne	a4,a3,40001d5c <command_empty+0x30>
    40001d6c:	0015859b          	addw	a1,a1,1
    40001d70:	fedff06f          	j	40001d5c <command_empty+0x30>
    40001d74:	00000593          	li	a1,0
    40001d78:	40b50533          	sub	a0,a0,a1
    40001d7c:	00153513          	seqz	a0,a0
    40001d80:	00813403          	ld	s0,8(sp)
    40001d84:	01010113          	add	sp,sp,16
    40001d88:	00008067          	ret

0000000040001d8c <console_init>:
    40001d8c:	fd010113          	add	sp,sp,-48
    40001d90:	02113423          	sd	ra,40(sp)
    40001d94:	02813023          	sd	s0,32(sp)
    40001d98:	00913c23          	sd	s1,24(sp)
    40001d9c:	01213823          	sd	s2,16(sp)
    40001da0:	01313423          	sd	s3,8(sp)
    40001da4:	03010413          	add	s0,sp,48
    40001da8:	00018797          	auipc	a5,0x18
    40001dac:	4a07a023          	sw	zero,1184(a5) # 4001a248 <cmd_buf_idx>
    40001db0:	00018797          	auipc	a5,0x18
    40001db4:	4807a623          	sw	zero,1164(a5) # 4001a23c <last_duration>
    40001db8:	00018797          	auipc	a5,0x18
    40001dbc:	4807a023          	sw	zero,1152(a5) # 4001a238 <arrow_flag>
    40001dc0:	00018797          	auipc	a5,0x18
    40001dc4:	4807a223          	sw	zero,1156(a5) # 4001a244 <cmd_history_cnt>
    40001dc8:	00018797          	auipc	a5,0x18
    40001dcc:	4607ac23          	sw	zero,1144(a5) # 4001a240 <cmd_history_cur>
    40001dd0:	0001e917          	auipc	s2,0x1e
    40001dd4:	9a890913          	add	s2,s2,-1624 # 4001f778 <cmd_history>
    40001dd8:	0001d497          	auipc	s1,0x1d
    40001ddc:	9a048493          	add	s1,s1,-1632 # 4001e778 <cmd_history_len>
    40001de0:	0001e997          	auipc	s3,0x1e
    40001de4:	99898993          	add	s3,s3,-1640 # 4001f778 <cmd_history>
    40001de8:	40000613          	li	a2,1024
    40001dec:	00000593          	li	a1,0
    40001df0:	00090513          	mv	a0,s2
    40001df4:	fffff097          	auipc	ra,0xfffff
    40001df8:	a94080e7          	jalr	-1388(ra) # 40000888 <memset>
    40001dfc:	0004a023          	sw	zero,0(s1)
    40001e00:	40090913          	add	s2,s2,1024
    40001e04:	00448493          	add	s1,s1,4
    40001e08:	ff3490e3          	bne	s1,s3,40001de8 <console_init+0x5c>
    40001e0c:	40000613          	li	a2,1024
    40001e10:	00000593          	li	a1,0
    40001e14:	0001c517          	auipc	a0,0x1c
    40001e18:	56450513          	add	a0,a0,1380 # 4001e378 <cmd_buf>
    40001e1c:	fffff097          	auipc	ra,0xfffff
    40001e20:	a6c080e7          	jalr	-1428(ra) # 40000888 <memset>
    40001e24:	00017517          	auipc	a0,0x17
    40001e28:	38c50513          	add	a0,a0,908 # 400191b0 <kernel_text_end+0x161b0>
    40001e2c:	ffffe097          	auipc	ra,0xffffe
    40001e30:	1fc080e7          	jalr	508(ra) # 40000028 <printf>
    40001e34:	00017517          	auipc	a0,0x17
    40001e38:	63c50513          	add	a0,a0,1596 # 40019470 <kernel_text_end+0x16470>
    40001e3c:	ffffe097          	auipc	ra,0xffffe
    40001e40:	1ec080e7          	jalr	492(ra) # 40000028 <printf>
    40001e44:	02813083          	ld	ra,40(sp)
    40001e48:	02013403          	ld	s0,32(sp)
    40001e4c:	01813483          	ld	s1,24(sp)
    40001e50:	01013903          	ld	s2,16(sp)
    40001e54:	00813983          	ld	s3,8(sp)
    40001e58:	03010113          	add	sp,sp,48
    40001e5c:	00008067          	ret

0000000040001e60 <console_display>:
    40001e60:	ff010113          	add	sp,sp,-16
    40001e64:	00113423          	sd	ra,8(sp)
    40001e68:	00813023          	sd	s0,0(sp)
    40001e6c:	01010413          	add	s0,sp,16
    40001e70:	05b00793          	li	a5,91
    40001e74:	06a7e863          	bltu	a5,a0,40001ee4 <console_display+0x84>
    40001e78:	04000793          	li	a5,64
    40001e7c:	02a7f863          	bgeu	a5,a0,40001eac <console_display+0x4c>
    40001e80:	fbf5079b          	addw	a5,a0,-65
    40001e84:	0ff7f693          	zext.b	a3,a5
    40001e88:	01a00713          	li	a4,26
    40001e8c:	26d76663          	bltu	a4,a3,400020f8 <console_display+0x298>
    40001e90:	00269793          	sll	a5,a3,0x2
    40001e94:	00017717          	auipc	a4,0x17
    40001e98:	6d870713          	add	a4,a4,1752 # 4001956c <kernel_text_end+0x1656c>
    40001e9c:	00e787b3          	add	a5,a5,a4
    40001ea0:	0007a783          	lw	a5,0(a5)
    40001ea4:	00e787b3          	add	a5,a5,a4
    40001ea8:	00078067          	jr	a5
    40001eac:	00d00793          	li	a5,13
    40001eb0:	04f50e63          	beq	a0,a5,40001f0c <console_display+0xac>
    40001eb4:	01b00793          	li	a5,27
    40001eb8:	06f50e63          	beq	a0,a5,40001f34 <console_display+0xd4>
    40001ebc:	00800793          	li	a5,8
    40001ec0:	22f51c63          	bne	a0,a5,400020f8 <console_display+0x298>
    40001ec4:	00018797          	auipc	a5,0x18
    40001ec8:	3847a783          	lw	a5,900(a5) # 4001a248 <cmd_buf_idx>
    40001ecc:	06f05463          	blez	a5,40001f34 <console_display+0xd4>
    40001ed0:	00017517          	auipc	a0,0x17
    40001ed4:	5a850513          	add	a0,a0,1448 # 40019478 <kernel_text_end+0x16478>
    40001ed8:	ffffe097          	auipc	ra,0xffffe
    40001edc:	150080e7          	jalr	336(ra) # 40000028 <printf>
    40001ee0:	0540006f          	j	40001f34 <console_display+0xd4>
    40001ee4:	07f00793          	li	a5,127
    40001ee8:	20f51863          	bne	a0,a5,400020f8 <console_display+0x298>
    40001eec:	00018797          	auipc	a5,0x18
    40001ef0:	35c7a783          	lw	a5,860(a5) # 4001a248 <cmd_buf_idx>
    40001ef4:	04f05063          	blez	a5,40001f34 <console_display+0xd4>
    40001ef8:	00017517          	auipc	a0,0x17
    40001efc:	58050513          	add	a0,a0,1408 # 40019478 <kernel_text_end+0x16478>
    40001f00:	ffffe097          	auipc	ra,0xffffe
    40001f04:	128080e7          	jalr	296(ra) # 40000028 <printf>
    40001f08:	02c0006f          	j	40001f34 <console_display+0xd4>
    40001f0c:	0001c597          	auipc	a1,0x1c
    40001f10:	46c58593          	add	a1,a1,1132 # 4001e378 <cmd_buf>
    40001f14:	00017517          	auipc	a0,0x17
    40001f18:	56c50513          	add	a0,a0,1388 # 40019480 <kernel_text_end+0x16480>
    40001f1c:	ffffe097          	auipc	ra,0xffffe
    40001f20:	10c080e7          	jalr	268(ra) # 40000028 <printf>
    40001f24:	00017517          	auipc	a0,0x17
    40001f28:	56c50513          	add	a0,a0,1388 # 40019490 <kernel_text_end+0x16490>
    40001f2c:	ffffe097          	auipc	ra,0xffffe
    40001f30:	0fc080e7          	jalr	252(ra) # 40000028 <printf>
    40001f34:	00813083          	ld	ra,8(sp)
    40001f38:	00013403          	ld	s0,0(sp)
    40001f3c:	01010113          	add	sp,sp,16
    40001f40:	00008067          	ret
    40001f44:	00018797          	auipc	a5,0x18
    40001f48:	2f47a783          	lw	a5,756(a5) # 4001a238 <arrow_flag>
    40001f4c:	02078663          	beqz	a5,40001f78 <console_display+0x118>
    40001f50:	00018717          	auipc	a4,0x18
    40001f54:	2ec72703          	lw	a4,748(a4) # 4001a23c <last_duration>
    40001f58:	00a00793          	li	a5,10
    40001f5c:	fce7fce3          	bgeu	a5,a4,40001f34 <console_display+0xd4>
    40001f60:	05b00593          	li	a1,91
    40001f64:	00017517          	auipc	a0,0x17
    40001f68:	0bc50513          	add	a0,a0,188 # 40019020 <kernel_text_end+0x16020>
    40001f6c:	ffffe097          	auipc	ra,0xffffe
    40001f70:	0bc080e7          	jalr	188(ra) # 40000028 <printf>
    40001f74:	fc1ff06f          	j	40001f34 <console_display+0xd4>
    40001f78:	05b00593          	li	a1,91
    40001f7c:	00017517          	auipc	a0,0x17
    40001f80:	0a450513          	add	a0,a0,164 # 40019020 <kernel_text_end+0x16020>
    40001f84:	ffffe097          	auipc	ra,0xffffe
    40001f88:	0a4080e7          	jalr	164(ra) # 40000028 <printf>
    40001f8c:	fa9ff06f          	j	40001f34 <console_display+0xd4>
    40001f90:	00018717          	auipc	a4,0x18
    40001f94:	2a872703          	lw	a4,680(a4) # 4001a238 <arrow_flag>
    40001f98:	00200793          	li	a5,2
    40001f9c:	02f71663          	bne	a4,a5,40001fc8 <console_display+0x168>
    40001fa0:	00018717          	auipc	a4,0x18
    40001fa4:	29c72703          	lw	a4,668(a4) # 4001a23c <last_duration>
    40001fa8:	00a00793          	li	a5,10
    40001fac:	f8e7f4e3          	bgeu	a5,a4,40001f34 <console_display+0xd4>
    40001fb0:	04100593          	li	a1,65
    40001fb4:	00017517          	auipc	a0,0x17
    40001fb8:	4e450513          	add	a0,a0,1252 # 40019498 <kernel_text_end+0x16498>
    40001fbc:	ffffe097          	auipc	ra,0xffffe
    40001fc0:	06c080e7          	jalr	108(ra) # 40000028 <printf>
    40001fc4:	f71ff06f          	j	40001f34 <console_display+0xd4>
    40001fc8:	04100593          	li	a1,65
    40001fcc:	00017517          	auipc	a0,0x17
    40001fd0:	05450513          	add	a0,a0,84 # 40019020 <kernel_text_end+0x16020>
    40001fd4:	ffffe097          	auipc	ra,0xffffe
    40001fd8:	054080e7          	jalr	84(ra) # 40000028 <printf>
    40001fdc:	f59ff06f          	j	40001f34 <console_display+0xd4>
    40001fe0:	00018717          	auipc	a4,0x18
    40001fe4:	25872703          	lw	a4,600(a4) # 4001a238 <arrow_flag>
    40001fe8:	00200793          	li	a5,2
    40001fec:	02f71663          	bne	a4,a5,40002018 <console_display+0x1b8>
    40001ff0:	00018717          	auipc	a4,0x18
    40001ff4:	24c72703          	lw	a4,588(a4) # 4001a23c <last_duration>
    40001ff8:	00a00793          	li	a5,10
    40001ffc:	f2e7fce3          	bgeu	a5,a4,40001f34 <console_display+0xd4>
    40002000:	04200593          	li	a1,66
    40002004:	00017517          	auipc	a0,0x17
    40002008:	49450513          	add	a0,a0,1172 # 40019498 <kernel_text_end+0x16498>
    4000200c:	ffffe097          	auipc	ra,0xffffe
    40002010:	01c080e7          	jalr	28(ra) # 40000028 <printf>
    40002014:	f21ff06f          	j	40001f34 <console_display+0xd4>
    40002018:	04200593          	li	a1,66
    4000201c:	00017517          	auipc	a0,0x17
    40002020:	00450513          	add	a0,a0,4 # 40019020 <kernel_text_end+0x16020>
    40002024:	ffffe097          	auipc	ra,0xffffe
    40002028:	004080e7          	jalr	4(ra) # 40000028 <printf>
    4000202c:	f09ff06f          	j	40001f34 <console_display+0xd4>
    40002030:	00018717          	auipc	a4,0x18
    40002034:	20872703          	lw	a4,520(a4) # 4001a238 <arrow_flag>
    40002038:	00200793          	li	a5,2
    4000203c:	04f71063          	bne	a4,a5,4000207c <console_display+0x21c>
    40002040:	00018717          	auipc	a4,0x18
    40002044:	1fc72703          	lw	a4,508(a4) # 4001a23c <last_duration>
    40002048:	00a00793          	li	a5,10
    4000204c:	00e7ec63          	bltu	a5,a4,40002064 <console_display+0x204>
    40002050:	00017517          	auipc	a0,0x17
    40002054:	45050513          	add	a0,a0,1104 # 400194a0 <kernel_text_end+0x164a0>
    40002058:	ffffe097          	auipc	ra,0xffffe
    4000205c:	fd0080e7          	jalr	-48(ra) # 40000028 <printf>
    40002060:	ed5ff06f          	j	40001f34 <console_display+0xd4>
    40002064:	04300593          	li	a1,67
    40002068:	00017517          	auipc	a0,0x17
    4000206c:	43050513          	add	a0,a0,1072 # 40019498 <kernel_text_end+0x16498>
    40002070:	ffffe097          	auipc	ra,0xffffe
    40002074:	fb8080e7          	jalr	-72(ra) # 40000028 <printf>
    40002078:	ebdff06f          	j	40001f34 <console_display+0xd4>
    4000207c:	04300593          	li	a1,67
    40002080:	00017517          	auipc	a0,0x17
    40002084:	fa050513          	add	a0,a0,-96 # 40019020 <kernel_text_end+0x16020>
    40002088:	ffffe097          	auipc	ra,0xffffe
    4000208c:	fa0080e7          	jalr	-96(ra) # 40000028 <printf>
    40002090:	ea5ff06f          	j	40001f34 <console_display+0xd4>
    40002094:	00018717          	auipc	a4,0x18
    40002098:	1a472703          	lw	a4,420(a4) # 4001a238 <arrow_flag>
    4000209c:	00200793          	li	a5,2
    400020a0:	04f71063          	bne	a4,a5,400020e0 <console_display+0x280>
    400020a4:	00018717          	auipc	a4,0x18
    400020a8:	19872703          	lw	a4,408(a4) # 4001a23c <last_duration>
    400020ac:	00a00793          	li	a5,10
    400020b0:	00e7ec63          	bltu	a5,a4,400020c8 <console_display+0x268>
    400020b4:	00017517          	auipc	a0,0x17
    400020b8:	3fc50513          	add	a0,a0,1020 # 400194b0 <kernel_text_end+0x164b0>
    400020bc:	ffffe097          	auipc	ra,0xffffe
    400020c0:	f6c080e7          	jalr	-148(ra) # 40000028 <printf>
    400020c4:	e71ff06f          	j	40001f34 <console_display+0xd4>
    400020c8:	04400593          	li	a1,68
    400020cc:	00017517          	auipc	a0,0x17
    400020d0:	3cc50513          	add	a0,a0,972 # 40019498 <kernel_text_end+0x16498>
    400020d4:	ffffe097          	auipc	ra,0xffffe
    400020d8:	f54080e7          	jalr	-172(ra) # 40000028 <printf>
    400020dc:	e59ff06f          	j	40001f34 <console_display+0xd4>
    400020e0:	04400593          	li	a1,68
    400020e4:	00017517          	auipc	a0,0x17
    400020e8:	f3c50513          	add	a0,a0,-196 # 40019020 <kernel_text_end+0x16020>
    400020ec:	ffffe097          	auipc	ra,0xffffe
    400020f0:	f3c080e7          	jalr	-196(ra) # 40000028 <printf>
    400020f4:	e41ff06f          	j	40001f34 <console_display+0xd4>
    400020f8:	00050593          	mv	a1,a0
    400020fc:	00017517          	auipc	a0,0x17
    40002100:	f2450513          	add	a0,a0,-220 # 40019020 <kernel_text_end+0x16020>
    40002104:	ffffe097          	auipc	ra,0xffffe
    40002108:	f24080e7          	jalr	-220(ra) # 40000028 <printf>
    4000210c:	e29ff06f          	j	40001f34 <console_display+0xd4>

0000000040002110 <console_cmd_process>:
    40002110:	ff010113          	add	sp,sp,-16
    40002114:	00113423          	sd	ra,8(sp)
    40002118:	00813023          	sd	s0,0(sp)
    4000211c:	01010413          	add	s0,sp,16
    40002120:	05b00793          	li	a5,91
    40002124:	08a7e463          	bltu	a5,a0,400021ac <console_cmd_process+0x9c>
    40002128:	04000793          	li	a5,64
    4000212c:	02a7f863          	bgeu	a5,a0,4000215c <console_cmd_process+0x4c>
    40002130:	fbf5079b          	addw	a5,a0,-65
    40002134:	0ff7f693          	zext.b	a3,a5
    40002138:	01a00713          	li	a4,26
    4000213c:	44d76663          	bltu	a4,a3,40002588 <console_cmd_process+0x478>
    40002140:	00269793          	sll	a5,a3,0x2
    40002144:	00017717          	auipc	a4,0x17
    40002148:	49470713          	add	a4,a4,1172 # 400195d8 <kernel_text_end+0x165d8>
    4000214c:	00e787b3          	add	a5,a5,a4
    40002150:	0007a783          	lw	a5,0(a5)
    40002154:	00e787b3          	add	a5,a5,a4
    40002158:	00078067          	jr	a5
    4000215c:	00d00793          	li	a5,13
    40002160:	08f50663          	beq	a0,a5,400021ec <console_cmd_process+0xdc>
    40002164:	01b00793          	li	a5,27
    40002168:	40f50463          	beq	a0,a5,40002570 <console_cmd_process+0x460>
    4000216c:	00800793          	li	a5,8
    40002170:	40f51c63          	bne	a0,a5,40002588 <console_cmd_process+0x478>
    40002174:	00018797          	auipc	a5,0x18
    40002178:	0c07a223          	sw	zero,196(a5) # 4001a238 <arrow_flag>
    4000217c:	00018797          	auipc	a5,0x18
    40002180:	0cc7a783          	lw	a5,204(a5) # 4001a248 <cmd_buf_idx>
    40002184:	08f05e63          	blez	a5,40002220 <console_cmd_process+0x110>
    40002188:	fff7879b          	addw	a5,a5,-1
    4000218c:	0007871b          	sext.w	a4,a5
    40002190:	00018697          	auipc	a3,0x18
    40002194:	0af6ac23          	sw	a5,184(a3) # 4001a248 <cmd_buf_idx>
    40002198:	0001c797          	auipc	a5,0x1c
    4000219c:	1e078793          	add	a5,a5,480 # 4001e378 <cmd_buf>
    400021a0:	00e787b3          	add	a5,a5,a4
    400021a4:	00078023          	sb	zero,0(a5)
    400021a8:	0780006f          	j	40002220 <console_cmd_process+0x110>
    400021ac:	07f00793          	li	a5,127
    400021b0:	3cf51c63          	bne	a0,a5,40002588 <console_cmd_process+0x478>
    400021b4:	00018797          	auipc	a5,0x18
    400021b8:	0807a223          	sw	zero,132(a5) # 4001a238 <arrow_flag>
    400021bc:	00018797          	auipc	a5,0x18
    400021c0:	08c7a783          	lw	a5,140(a5) # 4001a248 <cmd_buf_idx>
    400021c4:	04f05e63          	blez	a5,40002220 <console_cmd_process+0x110>
    400021c8:	fff7879b          	addw	a5,a5,-1
    400021cc:	0007871b          	sext.w	a4,a5
    400021d0:	00018697          	auipc	a3,0x18
    400021d4:	06f6ac23          	sw	a5,120(a3) # 4001a248 <cmd_buf_idx>
    400021d8:	0001c797          	auipc	a5,0x1c
    400021dc:	1a078793          	add	a5,a5,416 # 4001e378 <cmd_buf>
    400021e0:	00e787b3          	add	a5,a5,a4
    400021e4:	00078023          	sb	zero,0(a5)
    400021e8:	0380006f          	j	40002220 <console_cmd_process+0x110>
    400021ec:	00018797          	auipc	a5,0x18
    400021f0:	0407a623          	sw	zero,76(a5) # 4001a238 <arrow_flag>
    400021f4:	00000097          	auipc	ra,0x0
    400021f8:	b38080e7          	jalr	-1224(ra) # 40001d2c <command_empty>
    400021fc:	02050a63          	beqz	a0,40002230 <console_cmd_process+0x120>
    40002200:	40000613          	li	a2,1024
    40002204:	00000593          	li	a1,0
    40002208:	0001c517          	auipc	a0,0x1c
    4000220c:	17050513          	add	a0,a0,368 # 4001e378 <cmd_buf>
    40002210:	ffffe097          	auipc	ra,0xffffe
    40002214:	678080e7          	jalr	1656(ra) # 40000888 <memset>
    40002218:	00018797          	auipc	a5,0x18
    4000221c:	0207a823          	sw	zero,48(a5) # 4001a248 <cmd_buf_idx>
    40002220:	00813083          	ld	ra,8(sp)
    40002224:	00013403          	ld	s0,0(sp)
    40002228:	01010113          	add	sp,sp,16
    4000222c:	00008067          	ret
    40002230:	00000097          	auipc	ra,0x0
    40002234:	a4c080e7          	jalr	-1460(ra) # 40001c7c <add_command_history>
    40002238:	fc9ff06f          	j	40002200 <console_cmd_process+0xf0>
    4000223c:	00018797          	auipc	a5,0x18
    40002240:	ffc7a783          	lw	a5,-4(a5) # 4001a238 <arrow_flag>
    40002244:	04078c63          	beqz	a5,4000229c <console_cmd_process+0x18c>
    40002248:	00018697          	auipc	a3,0x18
    4000224c:	ff46a683          	lw	a3,-12(a3) # 4001a23c <last_duration>
    40002250:	00a00713          	li	a4,10
    40002254:	00d76a63          	bltu	a4,a3,40002268 <console_cmd_process+0x158>
    40002258:	0017879b          	addw	a5,a5,1
    4000225c:	00018717          	auipc	a4,0x18
    40002260:	fcf72e23          	sw	a5,-36(a4) # 4001a238 <arrow_flag>
    40002264:	fbdff06f          	j	40002220 <console_cmd_process+0x110>
    40002268:	00018797          	auipc	a5,0x18
    4000226c:	fc07a823          	sw	zero,-48(a5) # 4001a238 <arrow_flag>
    40002270:	00018797          	auipc	a5,0x18
    40002274:	fd878793          	add	a5,a5,-40 # 4001a248 <cmd_buf_idx>
    40002278:	0007a703          	lw	a4,0(a5)
    4000227c:	0017069b          	addw	a3,a4,1
    40002280:	00d7a023          	sw	a3,0(a5)
    40002284:	0001c797          	auipc	a5,0x1c
    40002288:	0f478793          	add	a5,a5,244 # 4001e378 <cmd_buf>
    4000228c:	00e787b3          	add	a5,a5,a4
    40002290:	05b00713          	li	a4,91
    40002294:	00e78023          	sb	a4,0(a5)
    40002298:	f89ff06f          	j	40002220 <console_cmd_process+0x110>
    4000229c:	00018797          	auipc	a5,0x18
    400022a0:	fac78793          	add	a5,a5,-84 # 4001a248 <cmd_buf_idx>
    400022a4:	0007a703          	lw	a4,0(a5)
    400022a8:	0017069b          	addw	a3,a4,1
    400022ac:	00d7a023          	sw	a3,0(a5)
    400022b0:	0001c797          	auipc	a5,0x1c
    400022b4:	0c878793          	add	a5,a5,200 # 4001e378 <cmd_buf>
    400022b8:	00e787b3          	add	a5,a5,a4
    400022bc:	05b00713          	li	a4,91
    400022c0:	00e78023          	sb	a4,0(a5)
    400022c4:	f5dff06f          	j	40002220 <console_cmd_process+0x110>
    400022c8:	00018717          	auipc	a4,0x18
    400022cc:	f7072703          	lw	a4,-144(a4) # 4001a238 <arrow_flag>
    400022d0:	00200793          	li	a5,2
    400022d4:	02f70c63          	beq	a4,a5,4000230c <console_cmd_process+0x1fc>
    400022d8:	00018797          	auipc	a5,0x18
    400022dc:	f607a023          	sw	zero,-160(a5) # 4001a238 <arrow_flag>
    400022e0:	00018797          	auipc	a5,0x18
    400022e4:	f6878793          	add	a5,a5,-152 # 4001a248 <cmd_buf_idx>
    400022e8:	0007a703          	lw	a4,0(a5)
    400022ec:	0017069b          	addw	a3,a4,1
    400022f0:	00d7a023          	sw	a3,0(a5)
    400022f4:	0001c797          	auipc	a5,0x1c
    400022f8:	08478793          	add	a5,a5,132 # 4001e378 <cmd_buf>
    400022fc:	00e787b3          	add	a5,a5,a4
    40002300:	04100713          	li	a4,65
    40002304:	00e78023          	sb	a4,0(a5)
    40002308:	f19ff06f          	j	40002220 <console_cmd_process+0x110>
    4000230c:	00018717          	auipc	a4,0x18
    40002310:	f3072703          	lw	a4,-208(a4) # 4001a23c <last_duration>
    40002314:	00a00793          	li	a5,10
    40002318:	04e7f463          	bgeu	a5,a4,40002360 <console_cmd_process+0x250>
    4000231c:	00018797          	auipc	a5,0x18
    40002320:	f007ae23          	sw	zero,-228(a5) # 4001a238 <arrow_flag>
    40002324:	00018697          	auipc	a3,0x18
    40002328:	f2468693          	add	a3,a3,-220 # 4001a248 <cmd_buf_idx>
    4000232c:	0006a783          	lw	a5,0(a3)
    40002330:	0001c717          	auipc	a4,0x1c
    40002334:	04870713          	add	a4,a4,72 # 4001e378 <cmd_buf>
    40002338:	00f70633          	add	a2,a4,a5
    4000233c:	05b00593          	li	a1,91
    40002340:	00b60023          	sb	a1,0(a2)
    40002344:	0027861b          	addw	a2,a5,2
    40002348:	00c6a023          	sw	a2,0(a3)
    4000234c:	0017879b          	addw	a5,a5,1
    40002350:	00f70733          	add	a4,a4,a5
    40002354:	04100793          	li	a5,65
    40002358:	00f70023          	sb	a5,0(a4)
    4000235c:	ec5ff06f          	j	40002220 <console_cmd_process+0x110>
    40002360:	00018797          	auipc	a5,0x18
    40002364:	ec07ac23          	sw	zero,-296(a5) # 4001a238 <arrow_flag>
    40002368:	00000513          	li	a0,0
    4000236c:	fffff097          	auipc	ra,0xfffff
    40002370:	6c8080e7          	jalr	1736(ra) # 40001a34 <retrieve_command_history>
    40002374:	eadff06f          	j	40002220 <console_cmd_process+0x110>
    40002378:	00018717          	auipc	a4,0x18
    4000237c:	ec072703          	lw	a4,-320(a4) # 4001a238 <arrow_flag>
    40002380:	00200793          	li	a5,2
    40002384:	02f70c63          	beq	a4,a5,400023bc <console_cmd_process+0x2ac>
    40002388:	00018797          	auipc	a5,0x18
    4000238c:	ea07a823          	sw	zero,-336(a5) # 4001a238 <arrow_flag>
    40002390:	00018797          	auipc	a5,0x18
    40002394:	eb878793          	add	a5,a5,-328 # 4001a248 <cmd_buf_idx>
    40002398:	0007a703          	lw	a4,0(a5)
    4000239c:	0017069b          	addw	a3,a4,1
    400023a0:	00d7a023          	sw	a3,0(a5)
    400023a4:	0001c797          	auipc	a5,0x1c
    400023a8:	fd478793          	add	a5,a5,-44 # 4001e378 <cmd_buf>
    400023ac:	00e787b3          	add	a5,a5,a4
    400023b0:	04200713          	li	a4,66
    400023b4:	00e78023          	sb	a4,0(a5)
    400023b8:	e69ff06f          	j	40002220 <console_cmd_process+0x110>
    400023bc:	00018717          	auipc	a4,0x18
    400023c0:	e8072703          	lw	a4,-384(a4) # 4001a23c <last_duration>
    400023c4:	00a00793          	li	a5,10
    400023c8:	04e7f463          	bgeu	a5,a4,40002410 <console_cmd_process+0x300>
    400023cc:	00018797          	auipc	a5,0x18
    400023d0:	e607a623          	sw	zero,-404(a5) # 4001a238 <arrow_flag>
    400023d4:	00018697          	auipc	a3,0x18
    400023d8:	e7468693          	add	a3,a3,-396 # 4001a248 <cmd_buf_idx>
    400023dc:	0006a783          	lw	a5,0(a3)
    400023e0:	0001c717          	auipc	a4,0x1c
    400023e4:	f9870713          	add	a4,a4,-104 # 4001e378 <cmd_buf>
    400023e8:	00f70633          	add	a2,a4,a5
    400023ec:	05b00593          	li	a1,91
    400023f0:	00b60023          	sb	a1,0(a2)
    400023f4:	0027861b          	addw	a2,a5,2
    400023f8:	00c6a023          	sw	a2,0(a3)
    400023fc:	0017879b          	addw	a5,a5,1
    40002400:	00f70733          	add	a4,a4,a5
    40002404:	04200793          	li	a5,66
    40002408:	00f70023          	sb	a5,0(a4)
    4000240c:	e15ff06f          	j	40002220 <console_cmd_process+0x110>
    40002410:	00018797          	auipc	a5,0x18
    40002414:	e207a423          	sw	zero,-472(a5) # 4001a238 <arrow_flag>
    40002418:	00100513          	li	a0,1
    4000241c:	fffff097          	auipc	ra,0xfffff
    40002420:	618080e7          	jalr	1560(ra) # 40001a34 <retrieve_command_history>
    40002424:	dfdff06f          	j	40002220 <console_cmd_process+0x110>
    40002428:	00018717          	auipc	a4,0x18
    4000242c:	e1072703          	lw	a4,-496(a4) # 4001a238 <arrow_flag>
    40002430:	00200793          	li	a5,2
    40002434:	02f70c63          	beq	a4,a5,4000246c <console_cmd_process+0x35c>
    40002438:	00018797          	auipc	a5,0x18
    4000243c:	e007a023          	sw	zero,-512(a5) # 4001a238 <arrow_flag>
    40002440:	00018797          	auipc	a5,0x18
    40002444:	e0878793          	add	a5,a5,-504 # 4001a248 <cmd_buf_idx>
    40002448:	0007a703          	lw	a4,0(a5)
    4000244c:	0017069b          	addw	a3,a4,1
    40002450:	00d7a023          	sw	a3,0(a5)
    40002454:	0001c797          	auipc	a5,0x1c
    40002458:	f2478793          	add	a5,a5,-220 # 4001e378 <cmd_buf>
    4000245c:	00e787b3          	add	a5,a5,a4
    40002460:	04300713          	li	a4,67
    40002464:	00e78023          	sb	a4,0(a5)
    40002468:	db9ff06f          	j	40002220 <console_cmd_process+0x110>
    4000246c:	00018717          	auipc	a4,0x18
    40002470:	dd072703          	lw	a4,-560(a4) # 4001a23c <last_duration>
    40002474:	00a00793          	li	a5,10
    40002478:	00e7e863          	bltu	a5,a4,40002488 <console_cmd_process+0x378>
    4000247c:	00018797          	auipc	a5,0x18
    40002480:	da07ae23          	sw	zero,-580(a5) # 4001a238 <arrow_flag>
    40002484:	d9dff06f          	j	40002220 <console_cmd_process+0x110>
    40002488:	00018797          	auipc	a5,0x18
    4000248c:	da07a823          	sw	zero,-592(a5) # 4001a238 <arrow_flag>
    40002490:	00018697          	auipc	a3,0x18
    40002494:	db868693          	add	a3,a3,-584 # 4001a248 <cmd_buf_idx>
    40002498:	0006a783          	lw	a5,0(a3)
    4000249c:	0001c717          	auipc	a4,0x1c
    400024a0:	edc70713          	add	a4,a4,-292 # 4001e378 <cmd_buf>
    400024a4:	00f70633          	add	a2,a4,a5
    400024a8:	05b00593          	li	a1,91
    400024ac:	00b60023          	sb	a1,0(a2)
    400024b0:	0027861b          	addw	a2,a5,2
    400024b4:	00c6a023          	sw	a2,0(a3)
    400024b8:	0017879b          	addw	a5,a5,1
    400024bc:	00f70733          	add	a4,a4,a5
    400024c0:	04300793          	li	a5,67
    400024c4:	00f70023          	sb	a5,0(a4)
    400024c8:	d59ff06f          	j	40002220 <console_cmd_process+0x110>
    400024cc:	00018717          	auipc	a4,0x18
    400024d0:	d6c72703          	lw	a4,-660(a4) # 4001a238 <arrow_flag>
    400024d4:	00200793          	li	a5,2
    400024d8:	02f70c63          	beq	a4,a5,40002510 <console_cmd_process+0x400>
    400024dc:	00018797          	auipc	a5,0x18
    400024e0:	d407ae23          	sw	zero,-676(a5) # 4001a238 <arrow_flag>
    400024e4:	00018797          	auipc	a5,0x18
    400024e8:	d6478793          	add	a5,a5,-668 # 4001a248 <cmd_buf_idx>
    400024ec:	0007a703          	lw	a4,0(a5)
    400024f0:	0017069b          	addw	a3,a4,1
    400024f4:	00d7a023          	sw	a3,0(a5)
    400024f8:	0001c797          	auipc	a5,0x1c
    400024fc:	e8078793          	add	a5,a5,-384 # 4001e378 <cmd_buf>
    40002500:	00e787b3          	add	a5,a5,a4
    40002504:	04400713          	li	a4,68
    40002508:	00e78023          	sb	a4,0(a5)
    4000250c:	d15ff06f          	j	40002220 <console_cmd_process+0x110>
    40002510:	00018717          	auipc	a4,0x18
    40002514:	d2c72703          	lw	a4,-724(a4) # 4001a23c <last_duration>
    40002518:	00a00793          	li	a5,10
    4000251c:	00e7e863          	bltu	a5,a4,4000252c <console_cmd_process+0x41c>
    40002520:	00018797          	auipc	a5,0x18
    40002524:	d007ac23          	sw	zero,-744(a5) # 4001a238 <arrow_flag>
    40002528:	cf9ff06f          	j	40002220 <console_cmd_process+0x110>
    4000252c:	00018797          	auipc	a5,0x18
    40002530:	d007a623          	sw	zero,-756(a5) # 4001a238 <arrow_flag>
    40002534:	00018697          	auipc	a3,0x18
    40002538:	d1468693          	add	a3,a3,-748 # 4001a248 <cmd_buf_idx>
    4000253c:	0006a783          	lw	a5,0(a3)
    40002540:	0001c717          	auipc	a4,0x1c
    40002544:	e3870713          	add	a4,a4,-456 # 4001e378 <cmd_buf>
    40002548:	00f70633          	add	a2,a4,a5
    4000254c:	05b00593          	li	a1,91
    40002550:	00b60023          	sb	a1,0(a2)
    40002554:	0027861b          	addw	a2,a5,2
    40002558:	00c6a023          	sw	a2,0(a3)
    4000255c:	0017879b          	addw	a5,a5,1
    40002560:	00f70733          	add	a4,a4,a5
    40002564:	04400793          	li	a5,68
    40002568:	00f70023          	sb	a5,0(a4)
    4000256c:	cb5ff06f          	j	40002220 <console_cmd_process+0x110>
    40002570:	00018717          	auipc	a4,0x18
    40002574:	cc870713          	add	a4,a4,-824 # 4001a238 <arrow_flag>
    40002578:	00072783          	lw	a5,0(a4)
    4000257c:	0017879b          	addw	a5,a5,1
    40002580:	00f72023          	sw	a5,0(a4)
    40002584:	c9dff06f          	j	40002220 <console_cmd_process+0x110>
    40002588:	00018797          	auipc	a5,0x18
    4000258c:	ca07a823          	sw	zero,-848(a5) # 4001a238 <arrow_flag>
    40002590:	00018797          	auipc	a5,0x18
    40002594:	cb878793          	add	a5,a5,-840 # 4001a248 <cmd_buf_idx>
    40002598:	0007a703          	lw	a4,0(a5)
    4000259c:	0017069b          	addw	a3,a4,1
    400025a0:	00d7a023          	sw	a3,0(a5)
    400025a4:	0001c797          	auipc	a5,0x1c
    400025a8:	dd478793          	add	a5,a5,-556 # 4001e378 <cmd_buf>
    400025ac:	00e787b3          	add	a5,a5,a4
    400025b0:	00a78023          	sb	a0,0(a5)
    400025b4:	c6dff06f          	j	40002220 <console_cmd_process+0x110>

00000000400025b8 <console_get_char>:
    400025b8:	fe010113          	add	sp,sp,-32
    400025bc:	00113c23          	sd	ra,24(sp)
    400025c0:	00813823          	sd	s0,16(sp)
    400025c4:	00913423          	sd	s1,8(sp)
    400025c8:	02010413          	add	s0,sp,32
    400025cc:	00050493          	mv	s1,a0
    400025d0:	00018517          	auipc	a0,0x18
    400025d4:	c6c50513          	add	a0,a0,-916 # 4001a23c <last_duration>
    400025d8:	ffffe097          	auipc	ra,0xffffe
    400025dc:	3d0080e7          	jalr	976(ra) # 400009a8 <stop_timing>
    400025e0:	00048513          	mv	a0,s1
    400025e4:	00000097          	auipc	ra,0x0
    400025e8:	87c080e7          	jalr	-1924(ra) # 40001e60 <console_display>
    400025ec:	00048513          	mv	a0,s1
    400025f0:	00000097          	auipc	ra,0x0
    400025f4:	b20080e7          	jalr	-1248(ra) # 40002110 <console_cmd_process>
    400025f8:	ffffe097          	auipc	ra,0xffffe
    400025fc:	388080e7          	jalr	904(ra) # 40000980 <start_timing>
    40002600:	01813083          	ld	ra,24(sp)
    40002604:	01013403          	ld	s0,16(sp)
    40002608:	00813483          	ld	s1,8(sp)
    4000260c:	02010113          	add	sp,sp,32
    40002610:	00008067          	ret
	...
