
army-ant.elf:     file format elf64-littleriscv


Disassembly of section .text:

0000000040000000 <boot_cfg>:
    40000000:	e6010113          	add	sp,sp,-416
    40000004:	18813c23          	sd	s0,408(sp)
    40000008:	1a010413          	add	s0,sp,416
    4000000c:	300027f3          	csrr	a5,mstatus
    40000010:	ffffe737          	lui	a4,0xffffe
    40000014:	7ff70713          	add	a4,a4,2047 # ffffffffffffe7ff <stack0+0xffffffffbeffe7ff>
    40000018:	00e7f7b3          	and	a5,a5,a4
    4000001c:	00001737          	lui	a4,0x1
    40000020:	80070713          	add	a4,a4,-2048 # 800 <BOOT_STACK_SIZE-0x1f800>
    40000024:	00e7e7b3          	or	a5,a5,a4
    40000028:	30079073          	csrw	mstatus,a5
    4000002c:	00000797          	auipc	a5,0x0
    40000030:	34878793          	add	a5,a5,840 # 40000374 <main>
    40000034:	34179073          	csrw	mepc,a5
    40000038:	00000793          	li	a5,0
    4000003c:	18079073          	csrw	satp,a5
    40000040:	000107b7          	lui	a5,0x10
    40000044:	fff78793          	add	a5,a5,-1 # ffff <BOOT_STACK_SIZE-0x10001>
    40000048:	30279073          	csrw	medeleg,a5
    4000004c:	30379073          	csrw	mideleg,a5
    40000050:	104027f3          	csrr	a5,sie
    40000054:	2227e793          	or	a5,a5,546
    40000058:	10479073          	csrw	sie,a5
    4000005c:	fff00793          	li	a5,-1
    40000060:	00a7d793          	srl	a5,a5,0xa
    40000064:	3b079073          	csrw	pmpaddr0,a5
    40000068:	00f00793          	li	a5,15
    4000006c:	3a079073          	csrw	pmpcfg0,a5
    40000070:	f14027f3          	csrr	a5,mhartid
    40000074:	e6f43023          	sd	a5,-416(s0)
    40000078:	e6040793          	add	a5,s0,-416
    4000007c:	00078213          	mv	tp,a5
    40000080:	30200073          	mret
    40000084:	19813403          	ld	s0,408(sp)
    40000088:	1a010113          	add	sp,sp,416
    4000008c:	00008067          	ret

0000000040000090 <serial_print_char>:
    40000090:	ff010113          	add	sp,sp,-16
    40000094:	00813423          	sd	s0,8(sp)
    40000098:	01010413          	add	s0,sp,16
    4000009c:	02500737          	lui	a4,0x2500
    400000a0:	07c70713          	add	a4,a4,124 # 250007c <BOOT_STACK_SIZE+0x24e007c>
    400000a4:	00072783          	lw	a5,0(a4)
    400000a8:	0017f793          	and	a5,a5,1
    400000ac:	fe079ce3          	bnez	a5,400000a4 <serial_print_char+0x14>
    400000b0:	0005051b          	sext.w	a0,a0
    400000b4:	025007b7          	lui	a5,0x2500
    400000b8:	00a7a023          	sw	a0,0(a5) # 2500000 <BOOT_STACK_SIZE+0x24e0000>
    400000bc:	00813403          	ld	s0,8(sp)
    400000c0:	01010113          	add	sp,sp,16
    400000c4:	00008067          	ret

00000000400000c8 <serial_print>:
    400000c8:	fe010113          	add	sp,sp,-32
    400000cc:	00113c23          	sd	ra,24(sp)
    400000d0:	00813823          	sd	s0,16(sp)
    400000d4:	00913423          	sd	s1,8(sp)
    400000d8:	02010413          	add	s0,sp,32
    400000dc:	00050493          	mv	s1,a0
    400000e0:	00054503          	lbu	a0,0(a0)
    400000e4:	00050c63          	beqz	a0,400000fc <serial_print+0x34>
    400000e8:	00000097          	auipc	ra,0x0
    400000ec:	fa8080e7          	jalr	-88(ra) # 40000090 <serial_print_char>
    400000f0:	00148493          	add	s1,s1,1
    400000f4:	0004c503          	lbu	a0,0(s1)
    400000f8:	fe0518e3          	bnez	a0,400000e8 <serial_print+0x20>
    400000fc:	01813083          	ld	ra,24(sp)
    40000100:	01013403          	ld	s0,16(sp)
    40000104:	00813483          	ld	s1,8(sp)
    40000108:	02010113          	add	sp,sp,32
    4000010c:	00008067          	ret

0000000040000110 <k_printf>:
    40000110:	f0010113          	add	sp,sp,-256
    40000114:	0a113c23          	sd	ra,184(sp)
    40000118:	0a813823          	sd	s0,176(sp)
    4000011c:	0a913423          	sd	s1,168(sp)
    40000120:	0c010413          	add	s0,sp,192
    40000124:	00050493          	mv	s1,a0
    40000128:	00b43423          	sd	a1,8(s0)
    4000012c:	00c43823          	sd	a2,16(s0)
    40000130:	00d43c23          	sd	a3,24(s0)
    40000134:	02e43023          	sd	a4,32(s0)
    40000138:	02f43423          	sd	a5,40(s0)
    4000013c:	03043823          	sd	a6,48(s0)
    40000140:	03143c23          	sd	a7,56(s0)
    40000144:	00840793          	add	a5,s0,8
    40000148:	faf43423          	sd	a5,-88(s0)
    4000014c:	00054503          	lbu	a0,0(a0)
    40000150:	1e050263          	beqz	a0,40000334 <k_printf+0x224>
    40000154:	0b213023          	sd	s2,160(sp)
    40000158:	09313c23          	sd	s3,152(sp)
    4000015c:	09413823          	sd	s4,144(sp)
    40000160:	09513423          	sd	s5,136(sp)
    40000164:	09613023          	sd	s6,128(sp)
    40000168:	07713c23          	sd	s7,120(sp)
    4000016c:	07813823          	sd	s8,112(sp)
    40000170:	02500993          	li	s3,37
    40000174:	06400a13          	li	s4,100
    40000178:	07300a93          	li	s5,115
    4000017c:	06300b13          	li	s6,99
    40000180:	07800b93          	li	s7,120
    40000184:	0c80006f          	j	4000024c <k_printf+0x13c>
    40000188:	fa843783          	ld	a5,-88(s0)
    4000018c:	00878713          	add	a4,a5,8
    40000190:	fae43423          	sd	a4,-88(s0)
    40000194:	0007a783          	lw	a5,0(a5)
    40000198:	1a078863          	beqz	a5,40000348 <k_printf+0x238>
    4000019c:	f4040693          	add	a3,s0,-192
    400001a0:	fff00613          	li	a2,-1
    400001a4:	00a00593          	li	a1,10
    400001a8:	0016061b          	addw	a2,a2,1
    400001ac:	02b7e73b          	remw	a4,a5,a1
    400001b0:	0307071b          	addw	a4,a4,48
    400001b4:	00e68023          	sb	a4,0(a3)
    400001b8:	02b7c7bb          	divw	a5,a5,a1
    400001bc:	00168693          	add	a3,a3,1
    400001c0:	fe0794e3          	bnez	a5,400001a8 <k_printf+0x98>
    400001c4:	06064e63          	bltz	a2,40000240 <k_printf+0x130>
    400001c8:	f4040793          	add	a5,s0,-192
    400001cc:	00c784b3          	add	s1,a5,a2
    400001d0:	f3f40793          	add	a5,s0,-193
    400001d4:	00c78c33          	add	s8,a5,a2
    400001d8:	02061613          	sll	a2,a2,0x20
    400001dc:	02065613          	srl	a2,a2,0x20
    400001e0:	40cc0c33          	sub	s8,s8,a2
    400001e4:	0004c503          	lbu	a0,0(s1)
    400001e8:	00000097          	auipc	ra,0x0
    400001ec:	ea8080e7          	jalr	-344(ra) # 40000090 <serial_print_char>
    400001f0:	fff48493          	add	s1,s1,-1
    400001f4:	fe9c18e3          	bne	s8,s1,400001e4 <k_printf+0xd4>
    400001f8:	0480006f          	j	40000240 <k_printf+0x130>
    400001fc:	fa843783          	ld	a5,-88(s0)
    40000200:	00878713          	add	a4,a5,8
    40000204:	fae43423          	sd	a4,-88(s0)
    40000208:	0007b503          	ld	a0,0(a5)
    4000020c:	00000097          	auipc	ra,0x0
    40000210:	ebc080e7          	jalr	-324(ra) # 400000c8 <serial_print>
    40000214:	02c0006f          	j	40000240 <k_printf+0x130>
    40000218:	fa843783          	ld	a5,-88(s0)
    4000021c:	00878713          	add	a4,a5,8
    40000220:	fae43423          	sd	a4,-88(s0)
    40000224:	0007c503          	lbu	a0,0(a5)
    40000228:	00000097          	auipc	ra,0x0
    4000022c:	e68080e7          	jalr	-408(ra) # 40000090 <serial_print_char>
    40000230:	0100006f          	j	40000240 <k_printf+0x130>
    40000234:	00000097          	auipc	ra,0x0
    40000238:	e5c080e7          	jalr	-420(ra) # 40000090 <serial_print_char>
    4000023c:	00048913          	mv	s2,s1
    40000240:	00190493          	add	s1,s2,1
    40000244:	00194503          	lbu	a0,1(s2)
    40000248:	0c050863          	beqz	a0,40000318 <k_printf+0x208>
    4000024c:	ff3514e3          	bne	a0,s3,40000234 <k_printf+0x124>
    40000250:	00148913          	add	s2,s1,1
    40000254:	0014c783          	lbu	a5,1(s1)
    40000258:	f34788e3          	beq	a5,s4,40000188 <k_printf+0x78>
    4000025c:	fb5780e3          	beq	a5,s5,400001fc <k_printf+0xec>
    40000260:	fb678ce3          	beq	a5,s6,40000218 <k_printf+0x108>
    40000264:	fd779ee3          	bne	a5,s7,40000240 <k_printf+0x130>
    40000268:	fa843783          	ld	a5,-88(s0)
    4000026c:	00878713          	add	a4,a5,8
    40000270:	fae43423          	sd	a4,-88(s0)
    40000274:	0007a783          	lw	a5,0(a5)
    40000278:	0e078063          	beqz	a5,40000358 <k_printf+0x248>
    4000027c:	f4040593          	add	a1,s0,-192
    40000280:	fff00613          	li	a2,-1
    40000284:	00060513          	mv	a0,a2
    40000288:	0016061b          	addw	a2,a2,1
    4000028c:	41f7d69b          	sraw	a3,a5,0x1f
    40000290:	01c6d69b          	srlw	a3,a3,0x1c
    40000294:	00f687bb          	addw	a5,a3,a5
    40000298:	00f7f713          	and	a4,a5,15
    4000029c:	40d7073b          	subw	a4,a4,a3
    400002a0:	0307071b          	addw	a4,a4,48
    400002a4:	00e58023          	sb	a4,0(a1)
    400002a8:	4047d79b          	sraw	a5,a5,0x4
    400002ac:	00158593          	add	a1,a1,1
    400002b0:	fc079ae3          	bnez	a5,40000284 <k_printf+0x174>
    400002b4:	0025079b          	addw	a5,a0,2
    400002b8:	fb078793          	add	a5,a5,-80
    400002bc:	008787b3          	add	a5,a5,s0
    400002c0:	07800713          	li	a4,120
    400002c4:	f8e78823          	sb	a4,-112(a5)
    400002c8:	0035051b          	addw	a0,a0,3
    400002cc:	fb050793          	add	a5,a0,-80
    400002d0:	008787b3          	add	a5,a5,s0
    400002d4:	03000713          	li	a4,48
    400002d8:	f8e78823          	sb	a4,-112(a5)
    400002dc:	f60542e3          	bltz	a0,40000240 <k_printf+0x130>
    400002e0:	f4040793          	add	a5,s0,-192
    400002e4:	00c784b3          	add	s1,a5,a2
    400002e8:	f3f40793          	add	a5,s0,-193
    400002ec:	00c78c33          	add	s8,a5,a2
    400002f0:	0026061b          	addw	a2,a2,2
    400002f4:	02061613          	sll	a2,a2,0x20
    400002f8:	02065613          	srl	a2,a2,0x20
    400002fc:	40cc0c33          	sub	s8,s8,a2
    40000300:	0024c503          	lbu	a0,2(s1)
    40000304:	00000097          	auipc	ra,0x0
    40000308:	d8c080e7          	jalr	-628(ra) # 40000090 <serial_print_char>
    4000030c:	fff48493          	add	s1,s1,-1
    40000310:	ff8498e3          	bne	s1,s8,40000300 <k_printf+0x1f0>
    40000314:	f2dff06f          	j	40000240 <k_printf+0x130>
    40000318:	0a013903          	ld	s2,160(sp)
    4000031c:	09813983          	ld	s3,152(sp)
    40000320:	09013a03          	ld	s4,144(sp)
    40000324:	08813a83          	ld	s5,136(sp)
    40000328:	08013b03          	ld	s6,128(sp)
    4000032c:	07813b83          	ld	s7,120(sp)
    40000330:	07013c03          	ld	s8,112(sp)
    40000334:	0b813083          	ld	ra,184(sp)
    40000338:	0b013403          	ld	s0,176(sp)
    4000033c:	0a813483          	ld	s1,168(sp)
    40000340:	10010113          	add	sp,sp,256
    40000344:	00008067          	ret
    40000348:	03000713          	li	a4,48
    4000034c:	f4e40023          	sb	a4,-192(s0)
    40000350:	00078613          	mv	a2,a5
    40000354:	e75ff06f          	j	400001c8 <k_printf+0xb8>
    40000358:	03000713          	li	a4,48
    4000035c:	f4e40023          	sb	a4,-192(s0)
    40000360:	07800693          	li	a3,120
    40000364:	f4d400a3          	sb	a3,-191(s0)
    40000368:	f4e40123          	sb	a4,-190(s0)
    4000036c:	00078613          	mv	a2,a5
    40000370:	f71ff06f          	j	400002e0 <k_printf+0x1d0>

0000000040000374 <main>:
    40000374:	ff010113          	add	sp,sp,-16
    40000378:	00113423          	sd	ra,8(sp)
    4000037c:	00813023          	sd	s0,0(sp)
    40000380:	01010413          	add	s0,sp,16
    40000384:	00020593          	mv	a1,tp
    40000388:	04100793          	li	a5,65
    4000038c:	00000717          	auipc	a4,0x0
    40000390:	06470713          	add	a4,a4,100 # 400003f0 <spin+0x8>
    40000394:	00000693          	li	a3,0
    40000398:	00000613          	li	a2,0
    4000039c:	0005b583          	ld	a1,0(a1)
    400003a0:	00000517          	auipc	a0,0x0
    400003a4:	06050513          	add	a0,a0,96 # 40000400 <spin+0x18>
    400003a8:	00000097          	auipc	ra,0x0
    400003ac:	d68080e7          	jalr	-664(ra) # 40000110 <k_printf>
    400003b0:	00000517          	auipc	a0,0x0
    400003b4:	08050513          	add	a0,a0,128 # 40000430 <spin+0x48>
    400003b8:	00000097          	auipc	ra,0x0
    400003bc:	d58080e7          	jalr	-680(ra) # 40000110 <k_printf>
    400003c0:	0000006f          	j	400003c0 <main+0x4c>

00000000400003c4 <_start>:
    400003c4:	01000117          	auipc	sp,0x1000
    400003c8:	c3c10113          	add	sp,sp,-964 # 41000000 <stack0>
    400003cc:	00001537          	lui	a0,0x1
    400003d0:	f14025f3          	csrr	a1,mhartid
    400003d4:	00158593          	add	a1,a1,1
    400003d8:	02b50533          	mul	a0,a0,a1
    400003dc:	00a10133          	add	sp,sp,a0
    400003e0:	00000097          	auipc	ra,0x0
    400003e4:	c20080e7          	jalr	-992(ra) # 40000000 <boot_cfg>

00000000400003e8 <spin>:
    400003e8:	0000006f          	j	400003e8 <spin>
    400003ec:	0000                	.insn	2, 0x
    400003ee:	0000                	.insn	2, 0x
    400003f0:	6574                	.insn	2, 0x6574
    400003f2:	73207473          	csrrc	s0,mhpmevent18h,0
	...
    400003fe:	0000                	.insn	2, 0x
    40000400:	6168                	.insn	2, 0x6168
    40000402:	6472                	.insn	2, 0x6472
    40000404:	6469                	.insn	2, 0x6469
    40000406:	6920                	.insn	2, 0x6920
    40000408:	203a2073          	csrs	0x203,s4
    4000040c:	6425                	.insn	2, 0x6425
    4000040e:	7420                	.insn	2, 0x7420
    40000410:	7365                	.insn	2, 0x7365
    40000412:	2074                	.insn	2, 0x2074
    40000414:	6176                	.insn	2, 0x6176
    40000416:	3a6c                	.insn	2, 0x3a6c
    40000418:	2520                	.insn	2, 0x2520
    4000041a:	2064                	.insn	2, 0x2064
    4000041c:	6568                	.insn	2, 0x6568
    4000041e:	3a78                	.insn	2, 0x3a78
    40000420:	2520                	.insn	2, 0x2520
    40000422:	2578                	.insn	2, 0x2578
    40000424:	63252073          	csrs	0x632,a0
    40000428:	0d0a                	.insn	2, 0x0d0a
    4000042a:	0000                	.insn	2, 0x
    4000042c:	0000                	.insn	2, 0x
    4000042e:	0000                	.insn	2, 0x
    40000430:	2020                	.insn	2, 0x2020
    40000432:	2020                	.insn	2, 0x2020
    40000434:	20205b5b          	.insn	4, 0x20205b5b
    40000438:	2020                	.insn	2, 0x2020
    4000043a:	2020                	.insn	2, 0x2020
    4000043c:	2020                	.insn	2, 0x2020
    4000043e:	2020                	.insn	2, 0x2020
    40000440:	2020                	.insn	2, 0x2020
    40000442:	2020                	.insn	2, 0x2020
    40000444:	2020                	.insn	2, 0x2020
    40000446:	2020                	.insn	2, 0x2020
    40000448:	2020                	.insn	2, 0x2020
    4000044a:	2020                	.insn	2, 0x2020
    4000044c:	2020                	.insn	2, 0x2020
    4000044e:	2020                	.insn	2, 0x2020
    40000450:	2020                	.insn	2, 0x2020
    40000452:	2020                	.insn	2, 0x2020
    40000454:	2020                	.insn	2, 0x2020
    40000456:	2020                	.insn	2, 0x2020
    40000458:	2020                	.insn	2, 0x2020
    4000045a:	2020                	.insn	2, 0x2020
    4000045c:	5b20                	.insn	2, 0x5b20
    4000045e:	2020205b          	.insn	4, 0x2020205b
    40000462:	2020                	.insn	2, 0x2020
    40000464:	2020                	.insn	2, 0x2020
    40000466:	2020                	.insn	2, 0x2020
    40000468:	2020                	.insn	2, 0x2020
    4000046a:	2020                	.insn	2, 0x2020
    4000046c:	2020                	.insn	2, 0x2020
    4000046e:	5b20                	.insn	2, 0x5b20
    40000470:	2020205b          	.insn	4, 0x2020205b
    40000474:	0d0a                	.insn	2, 0x0d0a
    40000476:	2020                	.insn	2, 0x2020
    40000478:	5b20                	.insn	2, 0x5b20
    4000047a:	205b5b5b          	.insn	4, 0x205b5b5b
    4000047e:	2020                	.insn	2, 0x2020
    40000480:	5b20                	.insn	2, 0x5b20
    40000482:	5b5b5b5b          	.insn	4, 0x5b5b5b5b
    40000486:	2020                	.insn	2, 0x2020
    40000488:	2020                	.insn	2, 0x2020
    4000048a:	205b5b5b          	.insn	4, 0x205b5b5b
    4000048e:	5b20                	.insn	2, 0x5b20
    40000490:	20205b5b          	.insn	4, 0x20205b5b
    40000494:	5b20                	.insn	2, 0x5b20
    40000496:	2020205b          	.insn	4, 0x2020205b
    4000049a:	20205b5b          	.insn	4, 0x20205b5b
    4000049e:	2020                	.insn	2, 0x2020
    400004a0:	2020                	.insn	2, 0x2020
    400004a2:	5b5b5b5b          	.insn	4, 0x5b5b5b5b
    400004a6:	2020                	.insn	2, 0x2020
    400004a8:	2020                	.insn	2, 0x2020
    400004aa:	5b20                	.insn	2, 0x5b20
    400004ac:	205b5b5b          	.insn	4, 0x205b5b5b
    400004b0:	2020                	.insn	2, 0x2020
    400004b2:	5b5b5b5b          	.insn	4, 0x5b5b5b5b
    400004b6:	5b5b5b5b          	.insn	4, 0x5b5b5b5b
    400004ba:	0d0a                	.insn	2, 0x0d0a
    400004bc:	2020                	.insn	2, 0x2020
    400004be:	20205b5b          	.insn	4, 0x20205b5b
    400004c2:	20205b5b          	.insn	4, 0x20205b5b
    400004c6:	20205b5b          	.insn	4, 0x20205b5b
    400004ca:	5b20                	.insn	2, 0x5b20
    400004cc:	5b5b205b          	.insn	4, 0x5b5b205b
    400004d0:	2020                	.insn	2, 0x2020
    400004d2:	5b20                	.insn	2, 0x5b20
    400004d4:	2020205b          	.insn	4, 0x2020205b
    400004d8:	5b205b5b          	.insn	4, 0x5b205b5b
    400004dc:	2020205b          	.insn	4, 0x2020205b
    400004e0:	20205b5b          	.insn	4, 0x20205b5b
    400004e4:	2020                	.insn	2, 0x2020
    400004e6:	5b20                	.insn	2, 0x5b20
    400004e8:	5b20205b          	.insn	4, 0x5b20205b
    400004ec:	5b20205b          	.insn	4, 0x5b20205b
    400004f0:	2020205b          	.insn	4, 0x2020205b
    400004f4:	5b20                	.insn	2, 0x5b20
    400004f6:	2020205b          	.insn	4, 0x2020205b
    400004fa:	5b20                	.insn	2, 0x5b20
    400004fc:	2020205b          	.insn	4, 0x2020205b
    40000500:	0d0a                	.insn	2, 0x0d0a
    40000502:	5b20                	.insn	2, 0x5b20
    40000504:	2020205b          	.insn	4, 0x2020205b
    40000508:	5b20                	.insn	2, 0x5b20
    4000050a:	5b5b205b          	.insn	4, 0x5b5b205b
    4000050e:	2020                	.insn	2, 0x2020
    40000510:	2020                	.insn	2, 0x2020
    40000512:	2020                	.insn	2, 0x2020
    40000514:	20205b5b          	.insn	4, 0x20205b5b
    40000518:	5b20                	.insn	2, 0x5b20
    4000051a:	2020205b          	.insn	4, 0x2020205b
    4000051e:	5b205b5b          	.insn	4, 0x5b205b5b
    40000522:	2020205b          	.insn	4, 0x2020205b
    40000526:	20205b5b          	.insn	4, 0x20205b5b
    4000052a:	2020                	.insn	2, 0x2020
    4000052c:	20205b5b          	.insn	4, 0x20205b5b
    40000530:	2020                	.insn	2, 0x2020
    40000532:	5b205b5b          	.insn	4, 0x5b205b5b
    40000536:	2020205b          	.insn	4, 0x2020205b
    4000053a:	5b20                	.insn	2, 0x5b20
    4000053c:	2020205b          	.insn	4, 0x2020205b
    40000540:	5b20                	.insn	2, 0x5b20
    40000542:	2020205b          	.insn	4, 0x2020205b
    40000546:	0d0a                	.insn	2, 0x0d0a
    40000548:	5b20                	.insn	2, 0x5b20
    4000054a:	5b5b5b5b          	.insn	4, 0x5b5b5b5b
    4000054e:	205b5b5b          	.insn	4, 0x205b5b5b
    40000552:	20205b5b          	.insn	4, 0x20205b5b
    40000556:	2020                	.insn	2, 0x2020
    40000558:	2020                	.insn	2, 0x2020
    4000055a:	20205b5b          	.insn	4, 0x20205b5b
    4000055e:	5b20                	.insn	2, 0x5b20
    40000560:	2020205b          	.insn	4, 0x2020205b
    40000564:	5b205b5b          	.insn	4, 0x5b205b5b
    40000568:	2020205b          	.insn	4, 0x2020205b
    4000056c:	20205b5b          	.insn	4, 0x20205b5b
    40000570:	2020                	.insn	2, 0x2020
    40000572:	5b5b5b5b          	.insn	4, 0x5b5b5b5b
    40000576:	5b5b5b5b          	.insn	4, 0x5b5b5b5b
    4000057a:	5b20                	.insn	2, 0x5b20
    4000057c:	2020205b          	.insn	4, 0x2020205b
    40000580:	5b20                	.insn	2, 0x5b20
    40000582:	2020205b          	.insn	4, 0x2020205b
    40000586:	5b20                	.insn	2, 0x5b20
    40000588:	2020205b          	.insn	4, 0x2020205b
    4000058c:	0d0a                	.insn	2, 0x0d0a
    4000058e:	5b20                	.insn	2, 0x5b20
    40000590:	2020205b          	.insn	4, 0x2020205b
    40000594:	5b20                	.insn	2, 0x5b20
    40000596:	5b5b205b          	.insn	4, 0x5b5b205b
    4000059a:	2020                	.insn	2, 0x2020
    4000059c:	2020                	.insn	2, 0x2020
    4000059e:	2020                	.insn	2, 0x2020
    400005a0:	20205b5b          	.insn	4, 0x20205b5b
    400005a4:	5b20                	.insn	2, 0x5b20
    400005a6:	2020205b          	.insn	4, 0x2020205b
    400005aa:	5b205b5b          	.insn	4, 0x5b205b5b
    400005ae:	2020205b          	.insn	4, 0x2020205b
    400005b2:	20205b5b          	.insn	4, 0x20205b5b
    400005b6:	2020                	.insn	2, 0x2020
    400005b8:	20205b5b          	.insn	4, 0x20205b5b
    400005bc:	2020                	.insn	2, 0x2020
    400005be:	5b205b5b          	.insn	4, 0x5b205b5b
    400005c2:	2020205b          	.insn	4, 0x2020205b
    400005c6:	5b20                	.insn	2, 0x5b20
    400005c8:	2020205b          	.insn	4, 0x2020205b
    400005cc:	5b20                	.insn	2, 0x5b20
    400005ce:	2020205b          	.insn	4, 0x2020205b
    400005d2:	0d0a                	.insn	2, 0x0d0a
    400005d4:	5b20                	.insn	2, 0x5b20
    400005d6:	2020205b          	.insn	4, 0x2020205b
    400005da:	5b20                	.insn	2, 0x5b20
    400005dc:	5b5b205b          	.insn	4, 0x5b5b205b
    400005e0:	2020                	.insn	2, 0x2020
    400005e2:	2020                	.insn	2, 0x2020
    400005e4:	2020                	.insn	2, 0x2020
    400005e6:	20205b5b          	.insn	4, 0x20205b5b
    400005ea:	5b20                	.insn	2, 0x5b20
    400005ec:	2020205b          	.insn	4, 0x2020205b
    400005f0:	20205b5b          	.insn	4, 0x20205b5b
    400005f4:	5b5b5b5b          	.insn	4, 0x5b5b5b5b
    400005f8:	2020205b          	.insn	4, 0x2020205b
    400005fc:	2020                	.insn	2, 0x2020
    400005fe:	20205b5b          	.insn	4, 0x20205b5b
    40000602:	2020                	.insn	2, 0x2020
    40000604:	5b205b5b          	.insn	4, 0x5b205b5b
    40000608:	2020205b          	.insn	4, 0x2020205b
    4000060c:	5b20                	.insn	2, 0x5b20
    4000060e:	2020205b          	.insn	4, 0x2020205b
    40000612:	2020                	.insn	2, 0x2020
    40000614:	5b5b5b5b          	.insn	4, 0x5b5b5b5b
    40000618:	0d0a                	.insn	2, 0x0d0a
    4000061a:	2020                	.insn	2, 0x2020
    4000061c:	2020                	.insn	2, 0x2020
    4000061e:	2020                	.insn	2, 0x2020
    40000620:	2020                	.insn	2, 0x2020
    40000622:	2020                	.insn	2, 0x2020
    40000624:	2020                	.insn	2, 0x2020
    40000626:	2020                	.insn	2, 0x2020
    40000628:	2020                	.insn	2, 0x2020
    4000062a:	2020                	.insn	2, 0x2020
    4000062c:	2020                	.insn	2, 0x2020
    4000062e:	2020                	.insn	2, 0x2020
    40000630:	2020                	.insn	2, 0x2020
    40000632:	2020                	.insn	2, 0x2020
    40000634:	2020                	.insn	2, 0x2020
    40000636:	2020                	.insn	2, 0x2020
    40000638:	2020                	.insn	2, 0x2020
    4000063a:	2020                	.insn	2, 0x2020
    4000063c:	20205b5b          	.insn	4, 0x20205b5b
    40000640:	2020                	.insn	2, 0x2020
    40000642:	2020                	.insn	2, 0x2020
    40000644:	2020                	.insn	2, 0x2020
    40000646:	2020                	.insn	2, 0x2020
    40000648:	2020                	.insn	2, 0x2020
    4000064a:	2020                	.insn	2, 0x2020
    4000064c:	2020                	.insn	2, 0x2020
    4000064e:	2020                	.insn	2, 0x2020
    40000650:	2020                	.insn	2, 0x2020
    40000652:	2020                	.insn	2, 0x2020
    40000654:	2020                	.insn	2, 0x2020
    40000656:	2020                	.insn	2, 0x2020
    40000658:	2020                	.insn	2, 0x2020
    4000065a:	2020                	.insn	2, 0x2020
    4000065c:	2020                	.insn	2, 0x2020
    4000065e:	0d0a                	.insn	2, 0x0d0a
    40000660:	2020                	.insn	2, 0x2020
    40000662:	2020                	.insn	2, 0x2020
    40000664:	2020                	.insn	2, 0x2020
    40000666:	2020                	.insn	2, 0x2020
    40000668:	2020                	.insn	2, 0x2020
    4000066a:	2020                	.insn	2, 0x2020
    4000066c:	2020                	.insn	2, 0x2020
    4000066e:	2020                	.insn	2, 0x2020
    40000670:	2020                	.insn	2, 0x2020
    40000672:	2020                	.insn	2, 0x2020
    40000674:	2020                	.insn	2, 0x2020
    40000676:	2020                	.insn	2, 0x2020
    40000678:	2020                	.insn	2, 0x2020
    4000067a:	2020                	.insn	2, 0x2020
    4000067c:	2020                	.insn	2, 0x2020
    4000067e:	2020                	.insn	2, 0x2020
    40000680:	5b20                	.insn	2, 0x5b20
    40000682:	2020205b          	.insn	4, 0x2020205b
    40000686:	2020                	.insn	2, 0x2020
    40000688:	2020                	.insn	2, 0x2020
    4000068a:	2020                	.insn	2, 0x2020
    4000068c:	2020                	.insn	2, 0x2020
    4000068e:	2020                	.insn	2, 0x2020
    40000690:	2020                	.insn	2, 0x2020
    40000692:	2020                	.insn	2, 0x2020
    40000694:	2020                	.insn	2, 0x2020
    40000696:	2020                	.insn	2, 0x2020
    40000698:	2020                	.insn	2, 0x2020
    4000069a:	2020                	.insn	2, 0x2020
    4000069c:	2020                	.insn	2, 0x2020
    4000069e:	2020                	.insn	2, 0x2020
    400006a0:	2020                	.insn	2, 0x2020
    400006a2:	2020                	.insn	2, 0x2020
    400006a4:	0d0a                	.insn	2, 0x0d0a
    400006a6:	2020                	.insn	2, 0x2020
    400006a8:	2020                	.insn	2, 0x2020
    400006aa:	2020                	.insn	2, 0x2020
    400006ac:	2020                	.insn	2, 0x2020
    400006ae:	2020                	.insn	2, 0x2020
    400006b0:	2020                	.insn	2, 0x2020
    400006b2:	2020                	.insn	2, 0x2020
    400006b4:	2020                	.insn	2, 0x2020
    400006b6:	2020                	.insn	2, 0x2020
    400006b8:	2020                	.insn	2, 0x2020
    400006ba:	2020                	.insn	2, 0x2020
    400006bc:	2020                	.insn	2, 0x2020
    400006be:	2020                	.insn	2, 0x2020
    400006c0:	2020                	.insn	2, 0x2020
    400006c2:	2020                	.insn	2, 0x2020
    400006c4:	5b5b5b5b          	.insn	4, 0x5b5b5b5b
    400006c8:	2020                	.insn	2, 0x2020
    400006ca:	2020                	.insn	2, 0x2020
    400006cc:	2020                	.insn	2, 0x2020
    400006ce:	2020                	.insn	2, 0x2020
    400006d0:	2020                	.insn	2, 0x2020
    400006d2:	2020                	.insn	2, 0x2020
    400006d4:	2020                	.insn	2, 0x2020
    400006d6:	2020                	.insn	2, 0x2020
    400006d8:	2020                	.insn	2, 0x2020
    400006da:	4020                	.insn	2, 0x4020
    400006dc:	7541                	.insn	2, 0x7541
    400006de:	6874                	.insn	2, 0x6874
    400006e0:	203a726f          	jal	tp,400a80e2 <spin+0xa7cfa>
    400006e4:	694c                	.insn	2, 0x694c
    400006e6:	7558                	.insn	2, 0x7558
    400006e8:	6e61                	.insn	2, 0x6e61
    400006ea:	0d0a                	.insn	2, 0x0d0a
	...
