
army-ant.elf:     file format elf64-littleriscv


Disassembly of section .text:

0000000040000000 <_start>:
    40000000:	0001a117          	auipc	sp,0x1a
    40000004:	a0010113          	add	sp,sp,-1536 # 40019a00 <stack0>
    40000008:	00001537          	lui	a0,0x1
    4000000c:	f14025f3          	csrr	a1,mhartid
    40000010:	00158593          	add	a1,a1,1
    40000014:	02b50533          	mul	a0,a0,a1
    40000018:	00a10133          	add	sp,sp,a0
    4000001c:	00000097          	auipc	ra,0x0
    40000020:	2a4080e7          	jalr	676(ra) # 400002c0 <boot_cfg>

0000000040000024 <spin>:
    40000024:	0000006f          	j	40000024 <spin>

0000000040000028 <pte_retrieve>:
    40000028:	fc010113          	add	sp,sp,-64
    4000002c:	02113c23          	sd	ra,56(sp)
    40000030:	02813823          	sd	s0,48(sp)
    40000034:	02913423          	sd	s1,40(sp)
    40000038:	03213023          	sd	s2,32(sp)
    4000003c:	01313c23          	sd	s3,24(sp)
    40000040:	01413823          	sd	s4,16(sp)
    40000044:	01513423          	sd	s5,8(sp)
    40000048:	04010413          	add	s0,sp,64
    4000004c:	00050493          	mv	s1,a0
    40000050:	00058993          	mv	s3,a1
    40000054:	fff00793          	li	a5,-1
    40000058:	0197d793          	srl	a5,a5,0x19
    4000005c:	06b7e663          	bltu	a5,a1,400000c8 <pte_retrieve+0xa0>
    40000060:	01e00a13          	li	s4,30
    40000064:	00c00a93          	li	s5,12
    40000068:	0149d933          	srl	s2,s3,s4
    4000006c:	1ff97913          	and	s2,s2,511
    40000070:	00391913          	sll	s2,s2,0x3
    40000074:	01248933          	add	s2,s1,s2
    40000078:	00093483          	ld	s1,0(s2)
    4000007c:	0014f793          	and	a5,s1,1
    40000080:	04078e63          	beqz	a5,400000dc <pte_retrieve+0xb4>
    40000084:	00a4d493          	srl	s1,s1,0xa
    40000088:	00c49493          	sll	s1,s1,0xc
    4000008c:	ff7a0a1b          	addw	s4,s4,-9
    40000090:	fd5a1ce3          	bne	s4,s5,40000068 <pte_retrieve+0x40>
    40000094:	00c9d513          	srl	a0,s3,0xc
    40000098:	1ff57513          	and	a0,a0,511
    4000009c:	00351513          	sll	a0,a0,0x3
    400000a0:	00a48533          	add	a0,s1,a0
    400000a4:	03813083          	ld	ra,56(sp)
    400000a8:	03013403          	ld	s0,48(sp)
    400000ac:	02813483          	ld	s1,40(sp)
    400000b0:	02013903          	ld	s2,32(sp)
    400000b4:	01813983          	ld	s3,24(sp)
    400000b8:	01013a03          	ld	s4,16(sp)
    400000bc:	00813a83          	ld	s5,8(sp)
    400000c0:	04010113          	add	sp,sp,64
    400000c4:	00008067          	ret
    400000c8:	00019517          	auipc	a0,0x19
    400000cc:	f3850513          	add	a0,a0,-200 # 40019000 <kernel_text_end+0x18000>
    400000d0:	00001097          	auipc	ra,0x1
    400000d4:	98c080e7          	jalr	-1652(ra) # 40000a5c <k_panic>
    400000d8:	f89ff06f          	j	40000060 <pte_retrieve+0x38>
    400000dc:	00001097          	auipc	ra,0x1
    400000e0:	c7c080e7          	jalr	-900(ra) # 40000d58 <k_alloc_single_page>
    400000e4:	00050493          	mv	s1,a0
    400000e8:	00001637          	lui	a2,0x1
    400000ec:	00000593          	li	a1,0
    400000f0:	00001097          	auipc	ra,0x1
    400000f4:	d04080e7          	jalr	-764(ra) # 40000df4 <memset>
    400000f8:	00048c63          	beqz	s1,40000110 <pte_retrieve+0xe8>
    400000fc:	00c4d793          	srl	a5,s1,0xc
    40000100:	00a79793          	sll	a5,a5,0xa
    40000104:	0017e793          	or	a5,a5,1
    40000108:	00f93023          	sd	a5,0(s2)
    4000010c:	f81ff06f          	j	4000008c <pte_retrieve+0x64>
    40000110:	00019517          	auipc	a0,0x19
    40000114:	f2050513          	add	a0,a0,-224 # 40019030 <kernel_text_end+0x18030>
    40000118:	00000097          	auipc	ra,0x0
    4000011c:	5b0080e7          	jalr	1456(ra) # 400006c8 <k_printf>
    40000120:	00048513          	mv	a0,s1
    40000124:	f81ff06f          	j	400000a4 <pte_retrieve+0x7c>

0000000040000128 <vm_map>:
    40000128:	fa010113          	add	sp,sp,-96
    4000012c:	04113c23          	sd	ra,88(sp)
    40000130:	04813823          	sd	s0,80(sp)
    40000134:	06010413          	add	s0,sp,96
    40000138:	06068063          	beqz	a3,40000198 <vm_map+0x70>
    4000013c:	03413823          	sd	s4,48(sp)
    40000140:	03613023          	sd	s6,32(sp)
    40000144:	01713c23          	sd	s7,24(sp)
    40000148:	00050b13          	mv	s6,a0
    4000014c:	00070b93          	mv	s7,a4
    40000150:	fffff7b7          	lui	a5,0xfffff
    40000154:	00f5f5b3          	and	a1,a1,a5
    40000158:	00b686b3          	add	a3,a3,a1
    4000015c:	00f6fa33          	and	s4,a3,a5
    40000160:	00f67633          	and	a2,a2,a5
    40000164:	1145fa63          	bgeu	a1,s4,40000278 <vm_map+0x150>
    40000168:	04913423          	sd	s1,72(sp)
    4000016c:	05213023          	sd	s2,64(sp)
    40000170:	03313c23          	sd	s3,56(sp)
    40000174:	03513423          	sd	s5,40(sp)
    40000178:	01813823          	sd	s8,16(sp)
    4000017c:	01913423          	sd	s9,8(sp)
    40000180:	00058993          	mv	s3,a1
    40000184:	40b60ab3          	sub	s5,a2,a1
    40000188:	00019c97          	auipc	s9,0x19
    4000018c:	ef8c8c93          	add	s9,s9,-264 # 40019080 <kernel_text_end+0x18080>
    40000190:	00001c37          	lui	s8,0x1
    40000194:	0800006f          	j	40000214 <vm_map+0xec>
    40000198:	00019517          	auipc	a0,0x19
    4000019c:	eb050513          	add	a0,a0,-336 # 40019048 <kernel_text_end+0x18048>
    400001a0:	00001097          	auipc	ra,0x1
    400001a4:	8bc080e7          	jalr	-1860(ra) # 40000a5c <k_panic>
    400001a8:	00000513          	li	a0,0
    400001ac:	03c0006f          	j	400001e8 <vm_map+0xc0>
    400001b0:	00019517          	auipc	a0,0x19
    400001b4:	eb850513          	add	a0,a0,-328 # 40019068 <kernel_text_end+0x18068>
    400001b8:	00000097          	auipc	ra,0x0
    400001bc:	510080e7          	jalr	1296(ra) # 400006c8 <k_printf>
    400001c0:	fff00513          	li	a0,-1
    400001c4:	04813483          	ld	s1,72(sp)
    400001c8:	04013903          	ld	s2,64(sp)
    400001cc:	03813983          	ld	s3,56(sp)
    400001d0:	03013a03          	ld	s4,48(sp)
    400001d4:	02813a83          	ld	s5,40(sp)
    400001d8:	02013b03          	ld	s6,32(sp)
    400001dc:	01813b83          	ld	s7,24(sp)
    400001e0:	01013c03          	ld	s8,16(sp)
    400001e4:	00813c83          	ld	s9,8(sp)
    400001e8:	05813083          	ld	ra,88(sp)
    400001ec:	05013403          	ld	s0,80(sp)
    400001f0:	06010113          	add	sp,sp,96
    400001f4:	00008067          	ret
    400001f8:	00c4d493          	srl	s1,s1,0xc
    400001fc:	00a49493          	sll	s1,s1,0xa
    40000200:	0174e4b3          	or	s1,s1,s7
    40000204:	0014e493          	or	s1,s1,1
    40000208:	00993023          	sd	s1,0(s2)
    4000020c:	018989b3          	add	s3,s3,s8
    40000210:	0349fe63          	bgeu	s3,s4,4000024c <vm_map+0x124>
    40000214:	013a84b3          	add	s1,s5,s3
    40000218:	00098593          	mv	a1,s3
    4000021c:	000b0513          	mv	a0,s6
    40000220:	00000097          	auipc	ra,0x0
    40000224:	e08080e7          	jalr	-504(ra) # 40000028 <pte_retrieve>
    40000228:	00050913          	mv	s2,a0
    4000022c:	f80502e3          	beqz	a0,400001b0 <vm_map+0x88>
    40000230:	00053783          	ld	a5,0(a0)
    40000234:	0017f793          	and	a5,a5,1
    40000238:	fc0780e3          	beqz	a5,400001f8 <vm_map+0xd0>
    4000023c:	000c8513          	mv	a0,s9
    40000240:	00001097          	auipc	ra,0x1
    40000244:	81c080e7          	jalr	-2020(ra) # 40000a5c <k_panic>
    40000248:	fb1ff06f          	j	400001f8 <vm_map+0xd0>
    4000024c:	00000513          	li	a0,0
    40000250:	04813483          	ld	s1,72(sp)
    40000254:	04013903          	ld	s2,64(sp)
    40000258:	03813983          	ld	s3,56(sp)
    4000025c:	03013a03          	ld	s4,48(sp)
    40000260:	02813a83          	ld	s5,40(sp)
    40000264:	02013b03          	ld	s6,32(sp)
    40000268:	01813b83          	ld	s7,24(sp)
    4000026c:	01013c03          	ld	s8,16(sp)
    40000270:	00813c83          	ld	s9,8(sp)
    40000274:	f75ff06f          	j	400001e8 <vm_map+0xc0>
    40000278:	00000513          	li	a0,0
    4000027c:	03013a03          	ld	s4,48(sp)
    40000280:	02013b03          	ld	s6,32(sp)
    40000284:	01813b83          	ld	s7,24(sp)
    40000288:	f61ff06f          	j	400001e8 <vm_map+0xc0>

000000004000028c <vm_enable>:
    4000028c:	ff010113          	add	sp,sp,-16
    40000290:	00813423          	sd	s0,8(sp)
    40000294:	01010413          	add	s0,sp,16
    40000298:	12000073          	sfence.vma
    4000029c:	00c55513          	srl	a0,a0,0xc
    400002a0:	fff00793          	li	a5,-1
    400002a4:	03f79793          	sll	a5,a5,0x3f
    400002a8:	00f56533          	or	a0,a0,a5
    400002ac:	18051073          	csrw	satp,a0
    400002b0:	12000073          	sfence.vma
    400002b4:	00813403          	ld	s0,8(sp)
    400002b8:	01010113          	add	sp,sp,16
    400002bc:	00008067          	ret

00000000400002c0 <boot_cfg>:
    400002c0:	e6010113          	add	sp,sp,-416
    400002c4:	18813c23          	sd	s0,408(sp)
    400002c8:	1a010413          	add	s0,sp,416
    400002cc:	300027f3          	csrr	a5,mstatus
    400002d0:	ffffe737          	lui	a4,0xffffe
    400002d4:	7ff70713          	add	a4,a4,2047 # ffffffffffffe7ff <kernel_end+0xffffffffbffdf7ff>
    400002d8:	00e7f7b3          	and	a5,a5,a4
    400002dc:	00001737          	lui	a4,0x1
    400002e0:	80070713          	add	a4,a4,-2048 # 800 <_start-0x3ffff800>
    400002e4:	00e7e7b3          	or	a5,a5,a4
    400002e8:	30079073          	csrw	mstatus,a5
    400002ec:	00000797          	auipc	a5,0x0
    400002f0:	0e878793          	add	a5,a5,232 # 400003d4 <main>
    400002f4:	34179073          	csrw	mepc,a5
    400002f8:	12000073          	sfence.vma
    400002fc:	00000793          	li	a5,0
    40000300:	18079073          	csrw	satp,a5
    40000304:	12000073          	sfence.vma
    40000308:	000107b7          	lui	a5,0x10
    4000030c:	fff78793          	add	a5,a5,-1 # ffff <_start-0x3fff0001>
    40000310:	30279073          	csrw	medeleg,a5
    40000314:	30379073          	csrw	mideleg,a5
    40000318:	104027f3          	csrr	a5,sie
    4000031c:	2227e793          	or	a5,a5,546
    40000320:	10479073          	csrw	sie,a5
    40000324:	fff00793          	li	a5,-1
    40000328:	3b079073          	csrw	pmpaddr0,a5
    4000032c:	00f00793          	li	a5,15
    40000330:	3a079073          	csrw	pmpcfg0,a5
    40000334:	f14027f3          	csrr	a5,mhartid
    40000338:	e6f43023          	sd	a5,-416(s0)
    4000033c:	e6040793          	add	a5,s0,-416
    40000340:	00078213          	mv	tp,a5
    40000344:	30200073          	mret
    40000348:	19813403          	ld	s0,408(sp)
    4000034c:	1a010113          	add	sp,sp,416
    40000350:	00008067          	ret

0000000040000354 <serial_print_char>:
    40000354:	ff010113          	add	sp,sp,-16
    40000358:	00813423          	sd	s0,8(sp)
    4000035c:	01010413          	add	s0,sp,16
    40000360:	02500737          	lui	a4,0x2500
    40000364:	07c70713          	add	a4,a4,124 # 250007c <_start-0x3dafff84>
    40000368:	00072783          	lw	a5,0(a4)
    4000036c:	0017f793          	and	a5,a5,1
    40000370:	fe079ce3          	bnez	a5,40000368 <serial_print_char+0x14>
    40000374:	0005051b          	sext.w	a0,a0
    40000378:	025007b7          	lui	a5,0x2500
    4000037c:	00a7a023          	sw	a0,0(a5) # 2500000 <_start-0x3db00000>
    40000380:	00813403          	ld	s0,8(sp)
    40000384:	01010113          	add	sp,sp,16
    40000388:	00008067          	ret

000000004000038c <serial_print>:
    4000038c:	fe010113          	add	sp,sp,-32
    40000390:	00113c23          	sd	ra,24(sp)
    40000394:	00813823          	sd	s0,16(sp)
    40000398:	00913423          	sd	s1,8(sp)
    4000039c:	02010413          	add	s0,sp,32
    400003a0:	00050493          	mv	s1,a0
    400003a4:	00054503          	lbu	a0,0(a0)
    400003a8:	00050c63          	beqz	a0,400003c0 <serial_print+0x34>
    400003ac:	00000097          	auipc	ra,0x0
    400003b0:	fa8080e7          	jalr	-88(ra) # 40000354 <serial_print_char>
    400003b4:	00148493          	add	s1,s1,1
    400003b8:	0004c503          	lbu	a0,0(s1)
    400003bc:	fe0518e3          	bnez	a0,400003ac <serial_print+0x20>
    400003c0:	01813083          	ld	ra,24(sp)
    400003c4:	01013403          	ld	s0,16(sp)
    400003c8:	00813483          	ld	s1,8(sp)
    400003cc:	02010113          	add	sp,sp,32
    400003d0:	00008067          	ret

00000000400003d4 <main>:
    400003d4:	ff010113          	add	sp,sp,-16
    400003d8:	00113423          	sd	ra,8(sp)
    400003dc:	00813023          	sd	s0,0(sp)
    400003e0:	01010413          	add	s0,sp,16
    400003e4:	00000597          	auipc	a1,0x0
    400003e8:	c1c58593          	add	a1,a1,-996 # 40000000 <_start>
    400003ec:	00019517          	auipc	a0,0x19
    400003f0:	cb450513          	add	a0,a0,-844 # 400190a0 <kernel_text_end+0x180a0>
    400003f4:	00000097          	auipc	ra,0x0
    400003f8:	2d4080e7          	jalr	724(ra) # 400006c8 <k_printf>
    400003fc:	0001f597          	auipc	a1,0x1f
    40000400:	c0458593          	add	a1,a1,-1020 # 4001f000 <kernel_end>
    40000404:	00019517          	auipc	a0,0x19
    40000408:	cb450513          	add	a0,a0,-844 # 400190b8 <kernel_text_end+0x180b8>
    4000040c:	00000097          	auipc	ra,0x0
    40000410:	2bc080e7          	jalr	700(ra) # 400006c8 <k_printf>
    40000414:	00001597          	auipc	a1,0x1
    40000418:	bec58593          	add	a1,a1,-1044 # 40001000 <kernel_text_end>
    4000041c:	00019517          	auipc	a0,0x19
    40000420:	cb450513          	add	a0,a0,-844 # 400190d0 <kernel_text_end+0x180d0>
    40000424:	00000097          	auipc	ra,0x0
    40000428:	2a4080e7          	jalr	676(ra) # 400006c8 <k_printf>
    4000042c:	400005b7          	lui	a1,0x40000
    40000430:	00019517          	auipc	a0,0x19
    40000434:	cb850513          	add	a0,a0,-840 # 400190e8 <kernel_text_end+0x180e8>
    40000438:	00000097          	auipc	ra,0x0
    4000043c:	290080e7          	jalr	656(ra) # 400006c8 <k_printf>
    40000440:	40000597          	auipc	a1,0x40000
    40000444:	bbf58593          	add	a1,a1,-1089 # 7fffffff <kernel_end+0x3ffe0fff>
    40000448:	00019517          	auipc	a0,0x19
    4000044c:	cb050513          	add	a0,a0,-848 # 400190f8 <kernel_text_end+0x180f8>
    40000450:	00000097          	auipc	ra,0x0
    40000454:	278080e7          	jalr	632(ra) # 400006c8 <k_printf>
    40000458:	00019517          	auipc	a0,0x19
    4000045c:	cb050513          	add	a0,a0,-848 # 40019108 <kernel_text_end+0x18108>
    40000460:	00000097          	auipc	ra,0x0
    40000464:	268080e7          	jalr	616(ra) # 400006c8 <k_printf>
    40000468:	00001097          	auipc	ra,0x1
    4000046c:	8a0080e7          	jalr	-1888(ra) # 40000d08 <k_mem_paging_init>
    40000470:	00019517          	auipc	a0,0x19
    40000474:	cc050513          	add	a0,a0,-832 # 40019130 <kernel_text_end+0x18130>
    40000478:	00000097          	auipc	ra,0x0
    4000047c:	250080e7          	jalr	592(ra) # 400006c8 <k_printf>
    40000480:	00019517          	auipc	a0,0x19
    40000484:	ce050513          	add	a0,a0,-800 # 40019160 <kernel_text_end+0x18160>
    40000488:	00000097          	auipc	ra,0x0
    4000048c:	240080e7          	jalr	576(ra) # 400006c8 <k_printf>
    40000490:	00000097          	auipc	ra,0x0
    40000494:	64c080e7          	jalr	1612(ra) # 40000adc <k_pagetable_init>
    40000498:	00000097          	auipc	ra,0x0
    4000049c:	714080e7          	jalr	1812(ra) # 40000bac <k_vm_enable>
    400004a0:	00019517          	auipc	a0,0x19
    400004a4:	ce050513          	add	a0,a0,-800 # 40019180 <kernel_text_end+0x18180>
    400004a8:	00000097          	auipc	ra,0x0
    400004ac:	220080e7          	jalr	544(ra) # 400006c8 <k_printf>
    400004b0:	00019517          	auipc	a0,0x19
    400004b4:	cf050513          	add	a0,a0,-784 # 400191a0 <kernel_text_end+0x181a0>
    400004b8:	00000097          	auipc	ra,0x0
    400004bc:	210080e7          	jalr	528(ra) # 400006c8 <k_printf>
    400004c0:	00000513          	li	a0,0
    400004c4:	00813083          	ld	ra,8(sp)
    400004c8:	00013403          	ld	s0,0(sp)
    400004cc:	01010113          	add	sp,sp,16
    400004d0:	00008067          	ret

00000000400004d4 <k_spinlock_init>:
    400004d4:	ff010113          	add	sp,sp,-16
    400004d8:	00813423          	sd	s0,8(sp)
    400004dc:	01010413          	add	s0,sp,16
    400004e0:	00b53023          	sd	a1,0(a0)
    400004e4:	00052423          	sw	zero,8(a0)
    400004e8:	00053823          	sd	zero,16(a0)
    400004ec:	00813403          	ld	s0,8(sp)
    400004f0:	01010113          	add	sp,sp,16
    400004f4:	00008067          	ret

00000000400004f8 <k_spinlock_lock>:
    400004f8:	fd010113          	add	sp,sp,-48
    400004fc:	02113423          	sd	ra,40(sp)
    40000500:	02813023          	sd	s0,32(sp)
    40000504:	00913c23          	sd	s1,24(sp)
    40000508:	01213823          	sd	s2,16(sp)
    4000050c:	01313423          	sd	s3,8(sp)
    40000510:	03010413          	add	s0,sp,48
    40000514:	00050493          	mv	s1,a0
    40000518:	100029f3          	csrr	s3,sstatus
    4000051c:	00000097          	auipc	ra,0x0
    40000520:	578080e7          	jalr	1400(ra) # 40000a94 <k_get_cpu_id>
    40000524:	00050913          	mv	s2,a0
    40000528:	00451713          	sll	a4,a0,0x4
    4000052c:	00a70733          	add	a4,a4,a0
    40000530:	00471713          	sll	a4,a4,0x4
    40000534:	0001d797          	auipc	a5,0x1d
    40000538:	4cc78793          	add	a5,a5,1228 # 4001da00 <cpu_list>
    4000053c:	00e787b3          	add	a5,a5,a4
    40000540:	0047a703          	lw	a4,4(a5)
    40000544:	0017071b          	addw	a4,a4,1
    40000548:	00e7a223          	sw	a4,4(a5)
    4000054c:	0029f993          	and	s3,s3,2
    40000550:	0137a423          	sw	s3,8(a5)
    40000554:	0084a783          	lw	a5,8(s1)
    40000558:	02078263          	beqz	a5,4000057c <k_spinlock_lock+0x84>
    4000055c:	00451793          	sll	a5,a0,0x4
    40000560:	00a787b3          	add	a5,a5,a0
    40000564:	00479793          	sll	a5,a5,0x4
    40000568:	0001d717          	auipc	a4,0x1d
    4000056c:	49870713          	add	a4,a4,1176 # 4001da00 <cpu_list>
    40000570:	00e787b3          	add	a5,a5,a4
    40000574:	0104b703          	ld	a4,16(s1)
    40000578:	04f70c63          	beq	a4,a5,400005d0 <k_spinlock_lock+0xd8>
    4000057c:	00100713          	li	a4,1
    40000580:	00070793          	mv	a5,a4
    40000584:	00848693          	add	a3,s1,8
    40000588:	0cf6a7af          	amoswap.w.aq	a5,a5,(a3)
    4000058c:	0007879b          	sext.w	a5,a5
    40000590:	fe0798e3          	bnez	a5,40000580 <k_spinlock_lock+0x88>
    40000594:	0ff0000f          	fence
    40000598:	00491793          	sll	a5,s2,0x4
    4000059c:	012787b3          	add	a5,a5,s2
    400005a0:	00479793          	sll	a5,a5,0x4
    400005a4:	0001d717          	auipc	a4,0x1d
    400005a8:	45c70713          	add	a4,a4,1116 # 4001da00 <cpu_list>
    400005ac:	00e787b3          	add	a5,a5,a4
    400005b0:	00f4b823          	sd	a5,16(s1)
    400005b4:	02813083          	ld	ra,40(sp)
    400005b8:	02013403          	ld	s0,32(sp)
    400005bc:	01813483          	ld	s1,24(sp)
    400005c0:	01013903          	ld	s2,16(sp)
    400005c4:	00813983          	ld	s3,8(sp)
    400005c8:	03010113          	add	sp,sp,48
    400005cc:	00008067          	ret
    400005d0:	00019517          	auipc	a0,0x19
    400005d4:	e9050513          	add	a0,a0,-368 # 40019460 <kernel_text_end+0x18460>
    400005d8:	00000097          	auipc	ra,0x0
    400005dc:	484080e7          	jalr	1156(ra) # 40000a5c <k_panic>
    400005e0:	f9dff06f          	j	4000057c <k_spinlock_lock+0x84>

00000000400005e4 <k_spinlock_unlock>:
    400005e4:	fe010113          	add	sp,sp,-32
    400005e8:	00113c23          	sd	ra,24(sp)
    400005ec:	00813823          	sd	s0,16(sp)
    400005f0:	00913423          	sd	s1,8(sp)
    400005f4:	01213023          	sd	s2,0(sp)
    400005f8:	02010413          	add	s0,sp,32
    400005fc:	00050913          	mv	s2,a0
    40000600:	00000097          	auipc	ra,0x0
    40000604:	494080e7          	jalr	1172(ra) # 40000a94 <k_get_cpu_id>
    40000608:	00050493          	mv	s1,a0
    4000060c:	00892783          	lw	a5,8(s2)
    40000610:	02078263          	beqz	a5,40000634 <k_spinlock_unlock+0x50>
    40000614:	00451793          	sll	a5,a0,0x4
    40000618:	00a787b3          	add	a5,a5,a0
    4000061c:	00479793          	sll	a5,a5,0x4
    40000620:	0001d717          	auipc	a4,0x1d
    40000624:	3e070713          	add	a4,a4,992 # 4001da00 <cpu_list>
    40000628:	00e787b3          	add	a5,a5,a4
    4000062c:	01093703          	ld	a4,16(s2)
    40000630:	00f70a63          	beq	a4,a5,40000644 <k_spinlock_unlock+0x60>
    40000634:	00019517          	auipc	a0,0x19
    40000638:	e3c50513          	add	a0,a0,-452 # 40019470 <kernel_text_end+0x18470>
    4000063c:	00000097          	auipc	ra,0x0
    40000640:	420080e7          	jalr	1056(ra) # 40000a5c <k_panic>
    40000644:	00093823          	sd	zero,16(s2)
    40000648:	0ff0000f          	fence
    4000064c:	00890793          	add	a5,s2,8
    40000650:	0f50000f          	fence	iorw,ow
    40000654:	0807a02f          	amoswap.w	zero,zero,(a5)
    40000658:	00449793          	sll	a5,s1,0x4
    4000065c:	009787b3          	add	a5,a5,s1
    40000660:	00479793          	sll	a5,a5,0x4
    40000664:	0001d717          	auipc	a4,0x1d
    40000668:	39c70713          	add	a4,a4,924 # 4001da00 <cpu_list>
    4000066c:	00f707b3          	add	a5,a4,a5
    40000670:	0047a703          	lw	a4,4(a5)
    40000674:	fff7071b          	addw	a4,a4,-1
    40000678:	0007069b          	sext.w	a3,a4
    4000067c:	00e7a223          	sw	a4,4(a5)
    40000680:	02069863          	bnez	a3,400006b0 <k_spinlock_unlock+0xcc>
    40000684:	00449793          	sll	a5,s1,0x4
    40000688:	009787b3          	add	a5,a5,s1
    4000068c:	00479793          	sll	a5,a5,0x4
    40000690:	0001d717          	auipc	a4,0x1d
    40000694:	37070713          	add	a4,a4,880 # 4001da00 <cpu_list>
    40000698:	00f707b3          	add	a5,a4,a5
    4000069c:	0087a783          	lw	a5,8(a5)
    400006a0:	00078863          	beqz	a5,400006b0 <k_spinlock_unlock+0xcc>
    400006a4:	100027f3          	csrr	a5,sstatus
    400006a8:	0027e793          	or	a5,a5,2
    400006ac:	10079073          	csrw	sstatus,a5
    400006b0:	01813083          	ld	ra,24(sp)
    400006b4:	01013403          	ld	s0,16(sp)
    400006b8:	00813483          	ld	s1,8(sp)
    400006bc:	00013903          	ld	s2,0(sp)
    400006c0:	02010113          	add	sp,sp,32
    400006c4:	00008067          	ret

00000000400006c8 <k_printf>:
    400006c8:	ef010113          	add	sp,sp,-272
    400006cc:	0c113423          	sd	ra,200(sp)
    400006d0:	0c813023          	sd	s0,192(sp)
    400006d4:	0a913c23          	sd	s1,184(sp)
    400006d8:	0d010413          	add	s0,sp,208
    400006dc:	00050493          	mv	s1,a0
    400006e0:	00b43423          	sd	a1,8(s0)
    400006e4:	00c43823          	sd	a2,16(s0)
    400006e8:	00d43c23          	sd	a3,24(s0)
    400006ec:	02e43023          	sd	a4,32(s0)
    400006f0:	02f43423          	sd	a5,40(s0)
    400006f4:	03043823          	sd	a6,48(s0)
    400006f8:	03143c23          	sd	a7,56(s0)
    400006fc:	00840793          	add	a5,s0,8
    40000700:	faf43c23          	sd	a5,-72(s0)
    40000704:	00054503          	lbu	a0,0(a0)
    40000708:	2e050c63          	beqz	a0,40000a00 <k_printf+0x338>
    4000070c:	0b213823          	sd	s2,176(sp)
    40000710:	0b313423          	sd	s3,168(sp)
    40000714:	0b413023          	sd	s4,160(sp)
    40000718:	09513c23          	sd	s5,152(sp)
    4000071c:	09613823          	sd	s6,144(sp)
    40000720:	02500993          	li	s3,37
    40000724:	01500a13          	li	s4,21
    40000728:	00019a97          	auipc	s5,0x19
    4000072c:	e0ca8a93          	add	s5,s5,-500 # 40019534 <kernel_text_end+0x18534>
    40000730:	2800006f          	j	400009b0 <k_printf+0x2e8>
    40000734:	fb843783          	ld	a5,-72(s0)
    40000738:	00878713          	add	a4,a5,8
    4000073c:	fae43c23          	sd	a4,-72(s0)
    40000740:	0007b783          	ld	a5,0(a5)
    40000744:	2c078863          	beqz	a5,40000a14 <k_printf+0x34c>
    40000748:	f5040693          	add	a3,s0,-176
    4000074c:	fff00613          	li	a2,-1
    40000750:	00a00593          	li	a1,10
    40000754:	00900513          	li	a0,9
    40000758:	0016061b          	addw	a2,a2,1 # 1001 <_start-0x3fffefff>
    4000075c:	02b7f733          	remu	a4,a5,a1
    40000760:	0307071b          	addw	a4,a4,48
    40000764:	00e68023          	sb	a4,0(a3)
    40000768:	00078713          	mv	a4,a5
    4000076c:	02b7d7b3          	divu	a5,a5,a1
    40000770:	00168693          	add	a3,a3,1
    40000774:	fee562e3          	bltu	a0,a4,40000758 <k_printf+0x90>
    40000778:	22064663          	bltz	a2,400009a4 <k_printf+0x2dc>
    4000077c:	f5040793          	add	a5,s0,-176
    40000780:	00c784b3          	add	s1,a5,a2
    40000784:	f4f40793          	add	a5,s0,-177
    40000788:	00c78b33          	add	s6,a5,a2
    4000078c:	02061613          	sll	a2,a2,0x20
    40000790:	02065613          	srl	a2,a2,0x20
    40000794:	40cb0b33          	sub	s6,s6,a2
    40000798:	0004c503          	lbu	a0,0(s1)
    4000079c:	00000097          	auipc	ra,0x0
    400007a0:	bb8080e7          	jalr	-1096(ra) # 40000354 <serial_print_char>
    400007a4:	fff48493          	add	s1,s1,-1
    400007a8:	ff6498e3          	bne	s1,s6,40000798 <k_printf+0xd0>
    400007ac:	1f80006f          	j	400009a4 <k_printf+0x2dc>
    400007b0:	fb843783          	ld	a5,-72(s0)
    400007b4:	00878713          	add	a4,a5,8
    400007b8:	fae43c23          	sd	a4,-72(s0)
    400007bc:	0007b503          	ld	a0,0(a5)
    400007c0:	00000097          	auipc	ra,0x0
    400007c4:	bcc080e7          	jalr	-1076(ra) # 4000038c <serial_print>
    400007c8:	1dc0006f          	j	400009a4 <k_printf+0x2dc>
    400007cc:	fb843783          	ld	a5,-72(s0)
    400007d0:	00878713          	add	a4,a5,8
    400007d4:	fae43c23          	sd	a4,-72(s0)
    400007d8:	0007c503          	lbu	a0,0(a5)
    400007dc:	00000097          	auipc	ra,0x0
    400007e0:	b78080e7          	jalr	-1160(ra) # 40000354 <serial_print_char>
    400007e4:	1c00006f          	j	400009a4 <k_printf+0x2dc>
    400007e8:	00019797          	auipc	a5,0x19
    400007ec:	ca078793          	add	a5,a5,-864 # 40019488 <kernel_text_end+0x18488>
    400007f0:	0007b703          	ld	a4,0(a5)
    400007f4:	f2e43c23          	sd	a4,-200(s0)
    400007f8:	0087b703          	ld	a4,8(a5)
    400007fc:	f4e43023          	sd	a4,-192(s0)
    40000800:	0107c783          	lbu	a5,16(a5)
    40000804:	f4f40423          	sb	a5,-184(s0)
    40000808:	fb843783          	ld	a5,-72(s0)
    4000080c:	00878713          	add	a4,a5,8
    40000810:	fae43c23          	sd	a4,-72(s0)
    40000814:	0007b783          	ld	a5,0(a5)
    40000818:	20078663          	beqz	a5,40000a24 <k_printf+0x35c>
    4000081c:	f5040613          	add	a2,s0,-176
    40000820:	fff00693          	li	a3,-1
    40000824:	00f00513          	li	a0,15
    40000828:	00068593          	mv	a1,a3
    4000082c:	0016869b          	addw	a3,a3,1
    40000830:	00f7f713          	and	a4,a5,15
    40000834:	fc070713          	add	a4,a4,-64
    40000838:	00870733          	add	a4,a4,s0
    4000083c:	f7874703          	lbu	a4,-136(a4)
    40000840:	00e60023          	sb	a4,0(a2)
    40000844:	00078713          	mv	a4,a5
    40000848:	0047d793          	srl	a5,a5,0x4
    4000084c:	00160613          	add	a2,a2,1
    40000850:	fce56ce3          	bltu	a0,a4,40000828 <k_printf+0x160>
    40000854:	0025879b          	addw	a5,a1,2
    40000858:	fc078793          	add	a5,a5,-64
    4000085c:	008787b3          	add	a5,a5,s0
    40000860:	07800713          	li	a4,120
    40000864:	f8e78823          	sb	a4,-112(a5)
    40000868:	0035859b          	addw	a1,a1,3
    4000086c:	fc058793          	add	a5,a1,-64
    40000870:	008787b3          	add	a5,a5,s0
    40000874:	03000713          	li	a4,48
    40000878:	f8e78823          	sb	a4,-112(a5)
    4000087c:	1205c463          	bltz	a1,400009a4 <k_printf+0x2dc>
    40000880:	f5040793          	add	a5,s0,-176
    40000884:	00d784b3          	add	s1,a5,a3
    40000888:	f4f40793          	add	a5,s0,-177
    4000088c:	00d78b33          	add	s6,a5,a3
    40000890:	0026869b          	addw	a3,a3,2
    40000894:	02069693          	sll	a3,a3,0x20
    40000898:	0206d693          	srl	a3,a3,0x20
    4000089c:	40db0b33          	sub	s6,s6,a3
    400008a0:	0024c503          	lbu	a0,2(s1)
    400008a4:	00000097          	auipc	ra,0x0
    400008a8:	ab0080e7          	jalr	-1360(ra) # 40000354 <serial_print_char>
    400008ac:	fff48493          	add	s1,s1,-1
    400008b0:	ff6498e3          	bne	s1,s6,400008a0 <k_printf+0x1d8>
    400008b4:	0f00006f          	j	400009a4 <k_printf+0x2dc>
    400008b8:	00019797          	auipc	a5,0x19
    400008bc:	bd078793          	add	a5,a5,-1072 # 40019488 <kernel_text_end+0x18488>
    400008c0:	0007b703          	ld	a4,0(a5)
    400008c4:	f2e43c23          	sd	a4,-200(s0)
    400008c8:	0087b703          	ld	a4,8(a5)
    400008cc:	f4e43023          	sd	a4,-192(s0)
    400008d0:	0107c783          	lbu	a5,16(a5)
    400008d4:	f4f40423          	sb	a5,-184(s0)
    400008d8:	fb843783          	ld	a5,-72(s0)
    400008dc:	00878713          	add	a4,a5,8
    400008e0:	fae43c23          	sd	a4,-72(s0)
    400008e4:	0007b783          	ld	a5,0(a5)
    400008e8:	14078c63          	beqz	a5,40000a40 <k_printf+0x378>
    400008ec:	f5040613          	add	a2,s0,-176
    400008f0:	fff00693          	li	a3,-1
    400008f4:	00f00513          	li	a0,15
    400008f8:	00068593          	mv	a1,a3
    400008fc:	0016869b          	addw	a3,a3,1
    40000900:	00f7f713          	and	a4,a5,15
    40000904:	fc070713          	add	a4,a4,-64
    40000908:	00870733          	add	a4,a4,s0
    4000090c:	f7874703          	lbu	a4,-136(a4)
    40000910:	00e60023          	sb	a4,0(a2)
    40000914:	00078713          	mv	a4,a5
    40000918:	0047d793          	srl	a5,a5,0x4
    4000091c:	00160613          	add	a2,a2,1
    40000920:	fce56ce3          	bltu	a0,a4,400008f8 <k_printf+0x230>
    40000924:	0025879b          	addw	a5,a1,2
    40000928:	fc078793          	add	a5,a5,-64
    4000092c:	008787b3          	add	a5,a5,s0
    40000930:	07800713          	li	a4,120
    40000934:	f8e78823          	sb	a4,-112(a5)
    40000938:	0035859b          	addw	a1,a1,3
    4000093c:	fc058793          	add	a5,a1,-64
    40000940:	008787b3          	add	a5,a5,s0
    40000944:	03000713          	li	a4,48
    40000948:	f8e78823          	sb	a4,-112(a5)
    4000094c:	0405cc63          	bltz	a1,400009a4 <k_printf+0x2dc>
    40000950:	f5040793          	add	a5,s0,-176
    40000954:	00d784b3          	add	s1,a5,a3
    40000958:	f4f40793          	add	a5,s0,-177
    4000095c:	00d78b33          	add	s6,a5,a3
    40000960:	0026869b          	addw	a3,a3,2
    40000964:	02069693          	sll	a3,a3,0x20
    40000968:	0206d693          	srl	a3,a3,0x20
    4000096c:	40db0b33          	sub	s6,s6,a3
    40000970:	0024c503          	lbu	a0,2(s1)
    40000974:	00000097          	auipc	ra,0x0
    40000978:	9e0080e7          	jalr	-1568(ra) # 40000354 <serial_print_char>
    4000097c:	fff48493          	add	s1,s1,-1
    40000980:	ff6498e3          	bne	s1,s6,40000970 <k_printf+0x2a8>
    40000984:	0200006f          	j	400009a4 <k_printf+0x2dc>
    40000988:	02500513          	li	a0,37
    4000098c:	00000097          	auipc	ra,0x0
    40000990:	9c8080e7          	jalr	-1592(ra) # 40000354 <serial_print_char>
    40000994:	0100006f          	j	400009a4 <k_printf+0x2dc>
    40000998:	00000097          	auipc	ra,0x0
    4000099c:	9bc080e7          	jalr	-1604(ra) # 40000354 <serial_print_char>
    400009a0:	00048913          	mv	s2,s1
    400009a4:	00190493          	add	s1,s2,1
    400009a8:	00194503          	lbu	a0,1(s2)
    400009ac:	04050063          	beqz	a0,400009ec <k_printf+0x324>
    400009b0:	ff3514e3          	bne	a0,s3,40000998 <k_printf+0x2d0>
    400009b4:	00148913          	add	s2,s1,1
    400009b8:	0014c783          	lbu	a5,1(s1)
    400009bc:	fd3786e3          	beq	a5,s3,40000988 <k_printf+0x2c0>
    400009c0:	f9d7871b          	addw	a4,a5,-99
    400009c4:	0ff77713          	zext.b	a4,a4
    400009c8:	fcea6ee3          	bltu	s4,a4,400009a4 <k_printf+0x2dc>
    400009cc:	f9d7879b          	addw	a5,a5,-99
    400009d0:	0ff7f713          	zext.b	a4,a5
    400009d4:	fcea68e3          	bltu	s4,a4,400009a4 <k_printf+0x2dc>
    400009d8:	00271793          	sll	a5,a4,0x2
    400009dc:	015787b3          	add	a5,a5,s5
    400009e0:	0007a783          	lw	a5,0(a5)
    400009e4:	015787b3          	add	a5,a5,s5
    400009e8:	00078067          	jr	a5
    400009ec:	0b013903          	ld	s2,176(sp)
    400009f0:	0a813983          	ld	s3,168(sp)
    400009f4:	0a013a03          	ld	s4,160(sp)
    400009f8:	09813a83          	ld	s5,152(sp)
    400009fc:	09013b03          	ld	s6,144(sp)
    40000a00:	0c813083          	ld	ra,200(sp)
    40000a04:	0c013403          	ld	s0,192(sp)
    40000a08:	0b813483          	ld	s1,184(sp)
    40000a0c:	11010113          	add	sp,sp,272
    40000a10:	00008067          	ret
    40000a14:	03000793          	li	a5,48
    40000a18:	f4f40823          	sb	a5,-176(s0)
    40000a1c:	00000613          	li	a2,0
    40000a20:	d5dff06f          	j	4000077c <k_printf+0xb4>
    40000a24:	03000793          	li	a5,48
    40000a28:	f4f40823          	sb	a5,-176(s0)
    40000a2c:	07800713          	li	a4,120
    40000a30:	f4e408a3          	sb	a4,-175(s0)
    40000a34:	f4f40923          	sb	a5,-174(s0)
    40000a38:	00000693          	li	a3,0
    40000a3c:	e45ff06f          	j	40000880 <k_printf+0x1b8>
    40000a40:	03000793          	li	a5,48
    40000a44:	f4f40823          	sb	a5,-176(s0)
    40000a48:	07800713          	li	a4,120
    40000a4c:	f4e408a3          	sb	a4,-175(s0)
    40000a50:	f4f40923          	sb	a5,-174(s0)
    40000a54:	00000693          	li	a3,0
    40000a58:	ef9ff06f          	j	40000950 <k_printf+0x288>

0000000040000a5c <k_panic>:
    40000a5c:	ff010113          	add	sp,sp,-16
    40000a60:	00113423          	sd	ra,8(sp)
    40000a64:	00813023          	sd	s0,0(sp)
    40000a68:	01010413          	add	s0,sp,16
    40000a6c:	00050593          	mv	a1,a0
    40000a70:	00019517          	auipc	a0,0x19
    40000a74:	a3050513          	add	a0,a0,-1488 # 400194a0 <kernel_text_end+0x184a0>
    40000a78:	00000097          	auipc	ra,0x0
    40000a7c:	c50080e7          	jalr	-944(ra) # 400006c8 <k_printf>
    40000a80:	00019517          	auipc	a0,0x19
    40000a84:	a3050513          	add	a0,a0,-1488 # 400194b0 <kernel_text_end+0x184b0>
    40000a88:	00000097          	auipc	ra,0x0
    40000a8c:	c40080e7          	jalr	-960(ra) # 400006c8 <k_printf>
    40000a90:	0000006f          	j	40000a90 <k_panic+0x34>

0000000040000a94 <k_get_cpu_id>:
    40000a94:	ff010113          	add	sp,sp,-16
    40000a98:	00813423          	sd	s0,8(sp)
    40000a9c:	01010413          	add	s0,sp,16
    40000aa0:	00020793          	mv	a5,tp
    40000aa4:	0007a503          	lw	a0,0(a5)
    40000aa8:	00813403          	ld	s0,8(sp)
    40000aac:	01010113          	add	sp,sp,16
    40000ab0:	00008067          	ret

0000000040000ab4 <k_vm_map>:
    40000ab4:	ff010113          	add	sp,sp,-16
    40000ab8:	00113423          	sd	ra,8(sp)
    40000abc:	00813023          	sd	s0,0(sp)
    40000ac0:	01010413          	add	s0,sp,16
    40000ac4:	fffff097          	auipc	ra,0xfffff
    40000ac8:	664080e7          	jalr	1636(ra) # 40000128 <vm_map>
    40000acc:	00813083          	ld	ra,8(sp)
    40000ad0:	00013403          	ld	s0,0(sp)
    40000ad4:	01010113          	add	sp,sp,16
    40000ad8:	00008067          	ret

0000000040000adc <k_pagetable_init>:
    40000adc:	fe010113          	add	sp,sp,-32
    40000ae0:	00113c23          	sd	ra,24(sp)
    40000ae4:	00813823          	sd	s0,16(sp)
    40000ae8:	00913423          	sd	s1,8(sp)
    40000aec:	01213023          	sd	s2,0(sp)
    40000af0:	02010413          	add	s0,sp,32
    40000af4:	00000097          	auipc	ra,0x0
    40000af8:	264080e7          	jalr	612(ra) # 40000d58 <k_alloc_single_page>
    40000afc:	00019797          	auipc	a5,0x19
    40000b00:	eea7ba23          	sd	a0,-268(a5) # 400199f0 <kernel_pagetable>
    40000b04:	fffff917          	auipc	s2,0xfffff
    40000b08:	4fc90913          	add	s2,s2,1276 # 40000000 <_start>
    40000b0c:	fff00713          	li	a4,-1
    40000b10:	03f71713          	sll	a4,a4,0x3f
    40000b14:	0c670713          	add	a4,a4,198
    40000b18:	00090693          	mv	a3,s2
    40000b1c:	00000613          	li	a2,0
    40000b20:	00000593          	li	a1,0
    40000b24:	00019517          	auipc	a0,0x19
    40000b28:	ecc53503          	ld	a0,-308(a0) # 400199f0 <kernel_pagetable>
    40000b2c:	00000097          	auipc	ra,0x0
    40000b30:	f88080e7          	jalr	-120(ra) # 40000ab4 <k_vm_map>
    40000b34:	00000497          	auipc	s1,0x0
    40000b38:	4cc48493          	add	s1,s1,1228 # 40001000 <kernel_text_end>
    40000b3c:	00300713          	li	a4,3
    40000b40:	03d71713          	sll	a4,a4,0x3d
    40000b44:	04a70713          	add	a4,a4,74
    40000b48:	412486b3          	sub	a3,s1,s2
    40000b4c:	00090613          	mv	a2,s2
    40000b50:	00090593          	mv	a1,s2
    40000b54:	00019517          	auipc	a0,0x19
    40000b58:	e9c53503          	ld	a0,-356(a0) # 400199f0 <kernel_pagetable>
    40000b5c:	00000097          	auipc	ra,0x0
    40000b60:	f58080e7          	jalr	-168(ra) # 40000ab4 <k_vm_map>
    40000b64:	00300713          	li	a4,3
    40000b68:	03d71713          	sll	a4,a4,0x3d
    40000b6c:	0c670713          	add	a4,a4,198
    40000b70:	3ffff697          	auipc	a3,0x3ffff
    40000b74:	48f68693          	add	a3,a3,1167 # 7fffffff <kernel_end+0x3ffe0fff>
    40000b78:	409686b3          	sub	a3,a3,s1
    40000b7c:	00048613          	mv	a2,s1
    40000b80:	00048593          	mv	a1,s1
    40000b84:	00019517          	auipc	a0,0x19
    40000b88:	e6c53503          	ld	a0,-404(a0) # 400199f0 <kernel_pagetable>
    40000b8c:	00000097          	auipc	ra,0x0
    40000b90:	f28080e7          	jalr	-216(ra) # 40000ab4 <k_vm_map>
    40000b94:	01813083          	ld	ra,24(sp)
    40000b98:	01013403          	ld	s0,16(sp)
    40000b9c:	00813483          	ld	s1,8(sp)
    40000ba0:	00013903          	ld	s2,0(sp)
    40000ba4:	02010113          	add	sp,sp,32
    40000ba8:	00008067          	ret

0000000040000bac <k_vm_enable>:
    40000bac:	ff010113          	add	sp,sp,-16
    40000bb0:	00113423          	sd	ra,8(sp)
    40000bb4:	00813023          	sd	s0,0(sp)
    40000bb8:	01010413          	add	s0,sp,16
    40000bbc:	00019517          	auipc	a0,0x19
    40000bc0:	e3453503          	ld	a0,-460(a0) # 400199f0 <kernel_pagetable>
    40000bc4:	fffff097          	auipc	ra,0xfffff
    40000bc8:	6c8080e7          	jalr	1736(ra) # 4000028c <vm_enable>
    40000bcc:	00813083          	ld	ra,8(sp)
    40000bd0:	00013403          	ld	s0,0(sp)
    40000bd4:	01010113          	add	sp,sp,16
    40000bd8:	00008067          	ret

0000000040000bdc <k_free_single_page>:
    40000bdc:	fe010113          	add	sp,sp,-32
    40000be0:	00113c23          	sd	ra,24(sp)
    40000be4:	00813823          	sd	s0,16(sp)
    40000be8:	00913423          	sd	s1,8(sp)
    40000bec:	01213023          	sd	s2,0(sp)
    40000bf0:	02010413          	add	s0,sp,32
    40000bf4:	00050493          	mv	s1,a0
    40000bf8:	03451793          	sll	a5,a0,0x34
    40000bfc:	00079e63          	bnez	a5,40000c18 <k_free_single_page+0x3c>
    40000c00:	0001e797          	auipc	a5,0x1e
    40000c04:	40078793          	add	a5,a5,1024 # 4001f000 <kernel_end>
    40000c08:	00f56863          	bltu	a0,a5,40000c18 <k_free_single_page+0x3c>
    40000c0c:	3ffff797          	auipc	a5,0x3ffff
    40000c10:	3f378793          	add	a5,a5,1011 # 7fffffff <kernel_end+0x3ffe0fff>
    40000c14:	00a7fa63          	bgeu	a5,a0,40000c28 <k_free_single_page+0x4c>
    40000c18:	00019517          	auipc	a0,0x19
    40000c1c:	8b050513          	add	a0,a0,-1872 # 400194c8 <kernel_text_end+0x184c8>
    40000c20:	00000097          	auipc	ra,0x0
    40000c24:	e3c080e7          	jalr	-452(ra) # 40000a5c <k_panic>
    40000c28:	00001637          	lui	a2,0x1
    40000c2c:	0ff00593          	li	a1,255
    40000c30:	00048513          	mv	a0,s1
    40000c34:	00000097          	auipc	ra,0x0
    40000c38:	1c0080e7          	jalr	448(ra) # 40000df4 <memset>
    40000c3c:	0001d917          	auipc	s2,0x1d
    40000c40:	64490913          	add	s2,s2,1604 # 4001e280 <mem_paging_spinlock>
    40000c44:	00090513          	mv	a0,s2
    40000c48:	00000097          	auipc	ra,0x0
    40000c4c:	8b0080e7          	jalr	-1872(ra) # 400004f8 <k_spinlock_lock>
    40000c50:	00019797          	auipc	a5,0x19
    40000c54:	da878793          	add	a5,a5,-600 # 400199f8 <mem_page_list>
    40000c58:	0007b703          	ld	a4,0(a5)
    40000c5c:	00e4b023          	sd	a4,0(s1)
    40000c60:	0097b023          	sd	s1,0(a5)
    40000c64:	00090513          	mv	a0,s2
    40000c68:	00000097          	auipc	ra,0x0
    40000c6c:	97c080e7          	jalr	-1668(ra) # 400005e4 <k_spinlock_unlock>
    40000c70:	01813083          	ld	ra,24(sp)
    40000c74:	01013403          	ld	s0,16(sp)
    40000c78:	00813483          	ld	s1,8(sp)
    40000c7c:	00013903          	ld	s2,0(sp)
    40000c80:	02010113          	add	sp,sp,32
    40000c84:	00008067          	ret

0000000040000c88 <k_free_pages>:
    40000c88:	fd010113          	add	sp,sp,-48
    40000c8c:	02113423          	sd	ra,40(sp)
    40000c90:	02813023          	sd	s0,32(sp)
    40000c94:	00913c23          	sd	s1,24(sp)
    40000c98:	03010413          	add	s0,sp,48
    40000c9c:	000017b7          	lui	a5,0x1
    40000ca0:	fff78793          	add	a5,a5,-1 # fff <_start-0x3ffff001>
    40000ca4:	00f504b3          	add	s1,a0,a5
    40000ca8:	fffff7b7          	lui	a5,0xfffff
    40000cac:	00f4f4b3          	and	s1,s1,a5
    40000cb0:	000087b7          	lui	a5,0x8
    40000cb4:	00f484b3          	add	s1,s1,a5
    40000cb8:	0295ee63          	bltu	a1,s1,40000cf4 <k_free_pages+0x6c>
    40000cbc:	01213823          	sd	s2,16(sp)
    40000cc0:	01313423          	sd	s3,8(sp)
    40000cc4:	01413023          	sd	s4,0(sp)
    40000cc8:	00058913          	mv	s2,a1
    40000ccc:	ffff8a37          	lui	s4,0xffff8
    40000cd0:	000089b7          	lui	s3,0x8
    40000cd4:	01448533          	add	a0,s1,s4
    40000cd8:	00000097          	auipc	ra,0x0
    40000cdc:	f04080e7          	jalr	-252(ra) # 40000bdc <k_free_single_page>
    40000ce0:	013484b3          	add	s1,s1,s3
    40000ce4:	fe9978e3          	bgeu	s2,s1,40000cd4 <k_free_pages+0x4c>
    40000ce8:	01013903          	ld	s2,16(sp)
    40000cec:	00813983          	ld	s3,8(sp)
    40000cf0:	00013a03          	ld	s4,0(sp)
    40000cf4:	02813083          	ld	ra,40(sp)
    40000cf8:	02013403          	ld	s0,32(sp)
    40000cfc:	01813483          	ld	s1,24(sp)
    40000d00:	03010113          	add	sp,sp,48
    40000d04:	00008067          	ret

0000000040000d08 <k_mem_paging_init>:
    40000d08:	ff010113          	add	sp,sp,-16
    40000d0c:	00113423          	sd	ra,8(sp)
    40000d10:	00813023          	sd	s0,0(sp)
    40000d14:	01010413          	add	s0,sp,16
    40000d18:	00018597          	auipc	a1,0x18
    40000d1c:	7e058593          	add	a1,a1,2016 # 400194f8 <kernel_text_end+0x184f8>
    40000d20:	0001d517          	auipc	a0,0x1d
    40000d24:	56050513          	add	a0,a0,1376 # 4001e280 <mem_paging_spinlock>
    40000d28:	fffff097          	auipc	ra,0xfffff
    40000d2c:	7ac080e7          	jalr	1964(ra) # 400004d4 <k_spinlock_init>
    40000d30:	3ffff597          	auipc	a1,0x3ffff
    40000d34:	2cf58593          	add	a1,a1,719 # 7fffffff <kernel_end+0x3ffe0fff>
    40000d38:	0001e517          	auipc	a0,0x1e
    40000d3c:	2c850513          	add	a0,a0,712 # 4001f000 <kernel_end>
    40000d40:	00000097          	auipc	ra,0x0
    40000d44:	f48080e7          	jalr	-184(ra) # 40000c88 <k_free_pages>
    40000d48:	00813083          	ld	ra,8(sp)
    40000d4c:	00013403          	ld	s0,0(sp)
    40000d50:	01010113          	add	sp,sp,16
    40000d54:	00008067          	ret

0000000040000d58 <k_alloc_single_page>:
    40000d58:	fe010113          	add	sp,sp,-32
    40000d5c:	00113c23          	sd	ra,24(sp)
    40000d60:	00813823          	sd	s0,16(sp)
    40000d64:	00913423          	sd	s1,8(sp)
    40000d68:	01213023          	sd	s2,0(sp)
    40000d6c:	02010413          	add	s0,sp,32
    40000d70:	00019797          	auipc	a5,0x19
    40000d74:	c887b783          	ld	a5,-888(a5) # 400199f8 <mem_page_list>
    40000d78:	06078463          	beqz	a5,40000de0 <k_alloc_single_page+0x88>
    40000d7c:	0001d917          	auipc	s2,0x1d
    40000d80:	50490913          	add	s2,s2,1284 # 4001e280 <mem_paging_spinlock>
    40000d84:	00090513          	mv	a0,s2
    40000d88:	fffff097          	auipc	ra,0xfffff
    40000d8c:	770080e7          	jalr	1904(ra) # 400004f8 <k_spinlock_lock>
    40000d90:	00019797          	auipc	a5,0x19
    40000d94:	c6878793          	add	a5,a5,-920 # 400199f8 <mem_page_list>
    40000d98:	0007b483          	ld	s1,0(a5)
    40000d9c:	0004b703          	ld	a4,0(s1)
    40000da0:	00e7b023          	sd	a4,0(a5)
    40000da4:	00090513          	mv	a0,s2
    40000da8:	00000097          	auipc	ra,0x0
    40000dac:	83c080e7          	jalr	-1988(ra) # 400005e4 <k_spinlock_unlock>
    40000db0:	00001637          	lui	a2,0x1
    40000db4:	00000593          	li	a1,0
    40000db8:	00048513          	mv	a0,s1
    40000dbc:	00000097          	auipc	ra,0x0
    40000dc0:	038080e7          	jalr	56(ra) # 40000df4 <memset>
    40000dc4:	00048513          	mv	a0,s1
    40000dc8:	01813083          	ld	ra,24(sp)
    40000dcc:	01013403          	ld	s0,16(sp)
    40000dd0:	00813483          	ld	s1,8(sp)
    40000dd4:	00013903          	ld	s2,0(sp)
    40000dd8:	02010113          	add	sp,sp,32
    40000ddc:	00008067          	ret
    40000de0:	00018517          	auipc	a0,0x18
    40000de4:	72850513          	add	a0,a0,1832 # 40019508 <kernel_text_end+0x18508>
    40000de8:	00000097          	auipc	ra,0x0
    40000dec:	c74080e7          	jalr	-908(ra) # 40000a5c <k_panic>
    40000df0:	f8dff06f          	j	40000d7c <k_alloc_single_page+0x24>

0000000040000df4 <memset>:
    40000df4:	ff010113          	add	sp,sp,-16
    40000df8:	00813423          	sd	s0,8(sp)
    40000dfc:	01010413          	add	s0,sp,16
    40000e00:	00c05c63          	blez	a2,40000e18 <memset+0x24>
    40000e04:	00050793          	mv	a5,a0
    40000e08:	00c50533          	add	a0,a0,a2
    40000e0c:	00b78023          	sb	a1,0(a5)
    40000e10:	00178793          	add	a5,a5,1
    40000e14:	fea79ce3          	bne	a5,a0,40000e0c <memset+0x18>
    40000e18:	00813403          	ld	s0,8(sp)
    40000e1c:	01010113          	add	sp,sp,16
    40000e20:	00008067          	ret
	...
