
army-ant.elf:     file format elf64-littleriscv


Disassembly of section .text:

0000000040000000 <_start>:
    40000000:	0001b117          	auipc	sp,0x1b
    40000004:	c7010113          	add	sp,sp,-912 # 4001ac70 <stack0>
    40000008:	00001537          	lui	a0,0x1
    4000000c:	f14025f3          	csrr	a1,mhartid
    40000010:	00158593          	add	a1,a1,1
    40000014:	02b50533          	mul	a0,a0,a1
    40000018:	00a10133          	add	sp,sp,a0
    4000001c:	00001097          	auipc	ra,0x1
    40000020:	b54080e7          	jalr	-1196(ra) # 40000b70 <boot_cfg>

0000000040000024 <spin>:
    40000024:	0000006f          	j	40000024 <spin>

0000000040000028 <pte_retrieve>:
    40000028:	fc010113          	add	sp,sp,-64
    4000002c:	02113c23          	sd	ra,56(sp)
    40000030:	02813823          	sd	s0,48(sp)
    40000034:	02913423          	sd	s1,40(sp)
    40000038:	03213023          	sd	s2,32(sp)
    4000003c:	01313c23          	sd	s3,24(sp)
    40000040:	01413823          	sd	s4,16(sp)
    40000044:	01513423          	sd	s5,8(sp)
    40000048:	04010413          	add	s0,sp,64
    4000004c:	00050493          	mv	s1,a0
    40000050:	00058993          	mv	s3,a1
    40000054:	fff00793          	li	a5,-1
    40000058:	0197d793          	srl	a5,a5,0x19
    4000005c:	06b7e663          	bltu	a5,a1,400000c8 <pte_retrieve+0xa0>
    40000060:	01e00a13          	li	s4,30
    40000064:	00c00a93          	li	s5,12
    40000068:	0149d933          	srl	s2,s3,s4
    4000006c:	1ff97913          	and	s2,s2,511
    40000070:	00391913          	sll	s2,s2,0x3
    40000074:	01248933          	add	s2,s1,s2
    40000078:	00093483          	ld	s1,0(s2)
    4000007c:	0014f793          	and	a5,s1,1
    40000080:	06078463          	beqz	a5,400000e8 <pte_retrieve+0xc0>
    40000084:	00a4d493          	srl	s1,s1,0xa
    40000088:	00c49493          	sll	s1,s1,0xc
    4000008c:	ff7a0a1b          	addw	s4,s4,-9
    40000090:	fd5a1ce3          	bne	s4,s5,40000068 <pte_retrieve+0x40>
    40000094:	00c9d513          	srl	a0,s3,0xc
    40000098:	1ff57513          	and	a0,a0,511
    4000009c:	00351513          	sll	a0,a0,0x3
    400000a0:	00a48533          	add	a0,s1,a0
    400000a4:	03813083          	ld	ra,56(sp)
    400000a8:	03013403          	ld	s0,48(sp)
    400000ac:	02813483          	ld	s1,40(sp)
    400000b0:	02013903          	ld	s2,32(sp)
    400000b4:	01813983          	ld	s3,24(sp)
    400000b8:	01013a03          	ld	s4,16(sp)
    400000bc:	00813a83          	ld	s5,8(sp)
    400000c0:	04010113          	add	sp,sp,64
    400000c4:	00008067          	ret
    400000c8:	00019617          	auipc	a2,0x19
    400000cc:	f3860613          	add	a2,a2,-200 # 40019000 <kernel_text_end+0x16000>
    400000d0:	02900593          	li	a1,41
    400000d4:	00019517          	auipc	a0,0x19
    400000d8:	f5c50513          	add	a0,a0,-164 # 40019030 <kernel_text_end+0x16030>
    400000dc:	00001097          	auipc	ra,0x1
    400000e0:	4fc080e7          	jalr	1276(ra) # 400015d8 <k_panic>
    400000e4:	f7dff06f          	j	40000060 <pte_retrieve+0x38>
    400000e8:	00001097          	auipc	ra,0x1
    400000ec:	7e0080e7          	jalr	2016(ra) # 400018c8 <k_alloc_single_page>
    400000f0:	00050493          	mv	s1,a0
    400000f4:	00001637          	lui	a2,0x1
    400000f8:	00000593          	li	a1,0
    400000fc:	00002097          	auipc	ra,0x2
    40000100:	874080e7          	jalr	-1932(ra) # 40001970 <k_memset>
    40000104:	00048c63          	beqz	s1,4000011c <pte_retrieve+0xf4>
    40000108:	00c4d793          	srl	a5,s1,0xc
    4000010c:	00a79793          	sll	a5,a5,0xa
    40000110:	0017e793          	or	a5,a5,1
    40000114:	00f93023          	sd	a5,0(s2)
    40000118:	f75ff06f          	j	4000008c <pte_retrieve+0x64>
    4000011c:	00019517          	auipc	a0,0x19
    40000120:	f3450513          	add	a0,a0,-204 # 40019050 <kernel_text_end+0x16050>
    40000124:	00001097          	auipc	ra,0x1
    40000128:	c94080e7          	jalr	-876(ra) # 40000db8 <k_printf>
    4000012c:	00048513          	mv	a0,s1
    40000130:	f75ff06f          	j	400000a4 <pte_retrieve+0x7c>

0000000040000134 <vm_map>:
    40000134:	fa010113          	add	sp,sp,-96
    40000138:	04113c23          	sd	ra,88(sp)
    4000013c:	04813823          	sd	s0,80(sp)
    40000140:	06010413          	add	s0,sp,96
    40000144:	06068663          	beqz	a3,400001b0 <vm_map+0x7c>
    40000148:	03413823          	sd	s4,48(sp)
    4000014c:	03613023          	sd	s6,32(sp)
    40000150:	01713c23          	sd	s7,24(sp)
    40000154:	00050b13          	mv	s6,a0
    40000158:	00070b93          	mv	s7,a4
    4000015c:	fffff7b7          	lui	a5,0xfffff
    40000160:	00f5f5b3          	and	a1,a1,a5
    40000164:	00b686b3          	add	a3,a3,a1
    40000168:	00f6fa33          	and	s4,a3,a5
    4000016c:	00f67633          	and	a2,a2,a5
    40000170:	1345fe63          	bgeu	a1,s4,400002ac <vm_map+0x178>
    40000174:	04913423          	sd	s1,72(sp)
    40000178:	05213023          	sd	s2,64(sp)
    4000017c:	03313c23          	sd	s3,56(sp)
    40000180:	03513423          	sd	s5,40(sp)
    40000184:	01813823          	sd	s8,16(sp)
    40000188:	01913423          	sd	s9,8(sp)
    4000018c:	01a13023          	sd	s10,0(sp)
    40000190:	00058993          	mv	s3,a1
    40000194:	40b60ab3          	sub	s5,a2,a1
    40000198:	00019d17          	auipc	s10,0x19
    4000019c:	f08d0d13          	add	s10,s10,-248 # 400190a0 <kernel_text_end+0x160a0>
    400001a0:	00019c97          	auipc	s9,0x19
    400001a4:	e90c8c93          	add	s9,s9,-368 # 40019030 <kernel_text_end+0x16030>
    400001a8:	00001c37          	lui	s8,0x1
    400001ac:	0900006f          	j	4000023c <vm_map+0x108>
    400001b0:	00019617          	auipc	a2,0x19
    400001b4:	eb860613          	add	a2,a2,-328 # 40019068 <kernel_text_end+0x16068>
    400001b8:	00700593          	li	a1,7
    400001bc:	00019517          	auipc	a0,0x19
    400001c0:	e7450513          	add	a0,a0,-396 # 40019030 <kernel_text_end+0x16030>
    400001c4:	00001097          	auipc	ra,0x1
    400001c8:	414080e7          	jalr	1044(ra) # 400015d8 <k_panic>
    400001cc:	00000513          	li	a0,0
    400001d0:	0400006f          	j	40000210 <vm_map+0xdc>
    400001d4:	00019517          	auipc	a0,0x19
    400001d8:	eb450513          	add	a0,a0,-332 # 40019088 <kernel_text_end+0x16088>
    400001dc:	00001097          	auipc	ra,0x1
    400001e0:	bdc080e7          	jalr	-1060(ra) # 40000db8 <k_printf>
    400001e4:	fff00513          	li	a0,-1
    400001e8:	04813483          	ld	s1,72(sp)
    400001ec:	04013903          	ld	s2,64(sp)
    400001f0:	03813983          	ld	s3,56(sp)
    400001f4:	03013a03          	ld	s4,48(sp)
    400001f8:	02813a83          	ld	s5,40(sp)
    400001fc:	02013b03          	ld	s6,32(sp)
    40000200:	01813b83          	ld	s7,24(sp)
    40000204:	01013c03          	ld	s8,16(sp)
    40000208:	00813c83          	ld	s9,8(sp)
    4000020c:	00013d03          	ld	s10,0(sp)
    40000210:	05813083          	ld	ra,88(sp)
    40000214:	05013403          	ld	s0,80(sp)
    40000218:	06010113          	add	sp,sp,96
    4000021c:	00008067          	ret
    40000220:	00c4d493          	srl	s1,s1,0xc
    40000224:	00a49493          	sll	s1,s1,0xa
    40000228:	0174e4b3          	or	s1,s1,s7
    4000022c:	0014e493          	or	s1,s1,1
    40000230:	00993023          	sd	s1,0(s2)
    40000234:	018989b3          	add	s3,s3,s8
    40000238:	0549f263          	bgeu	s3,s4,4000027c <vm_map+0x148>
    4000023c:	013a84b3          	add	s1,s5,s3
    40000240:	00098593          	mv	a1,s3
    40000244:	000b0513          	mv	a0,s6
    40000248:	00000097          	auipc	ra,0x0
    4000024c:	de0080e7          	jalr	-544(ra) # 40000028 <pte_retrieve>
    40000250:	00050913          	mv	s2,a0
    40000254:	f80500e3          	beqz	a0,400001d4 <vm_map+0xa0>
    40000258:	00053783          	ld	a5,0(a0)
    4000025c:	0017f793          	and	a5,a5,1
    40000260:	fc0780e3          	beqz	a5,40000220 <vm_map+0xec>
    40000264:	000d0613          	mv	a2,s10
    40000268:	01b00593          	li	a1,27
    4000026c:	000c8513          	mv	a0,s9
    40000270:	00001097          	auipc	ra,0x1
    40000274:	368080e7          	jalr	872(ra) # 400015d8 <k_panic>
    40000278:	fa9ff06f          	j	40000220 <vm_map+0xec>
    4000027c:	00000513          	li	a0,0
    40000280:	04813483          	ld	s1,72(sp)
    40000284:	04013903          	ld	s2,64(sp)
    40000288:	03813983          	ld	s3,56(sp)
    4000028c:	03013a03          	ld	s4,48(sp)
    40000290:	02813a83          	ld	s5,40(sp)
    40000294:	02013b03          	ld	s6,32(sp)
    40000298:	01813b83          	ld	s7,24(sp)
    4000029c:	01013c03          	ld	s8,16(sp)
    400002a0:	00813c83          	ld	s9,8(sp)
    400002a4:	00013d03          	ld	s10,0(sp)
    400002a8:	f69ff06f          	j	40000210 <vm_map+0xdc>
    400002ac:	00000513          	li	a0,0
    400002b0:	03013a03          	ld	s4,48(sp)
    400002b4:	02013b03          	ld	s6,32(sp)
    400002b8:	01813b83          	ld	s7,24(sp)
    400002bc:	f55ff06f          	j	40000210 <vm_map+0xdc>

00000000400002c0 <vm_enable>:
    400002c0:	ff010113          	add	sp,sp,-16
    400002c4:	00813423          	sd	s0,8(sp)
    400002c8:	01010413          	add	s0,sp,16
    400002cc:	12000073          	sfence.vma
    400002d0:	00c55513          	srl	a0,a0,0xc
    400002d4:	fff00793          	li	a5,-1
    400002d8:	03f79793          	sll	a5,a5,0x3f
    400002dc:	00f56533          	or	a0,a0,a5
    400002e0:	18051073          	csrw	satp,a0
    400002e4:	12000073          	sfence.vma
    400002e8:	00813403          	ld	s0,8(sp)
    400002ec:	01010113          	add	sp,sp,16
    400002f0:	00008067          	ret

00000000400002f4 <riscv_interrupt_enable>:
    400002f4:	ff010113          	add	sp,sp,-16
    400002f8:	00813423          	sd	s0,8(sp)
    400002fc:	01010413          	add	s0,sp,16
    40000300:	100027f3          	csrr	a5,sstatus
    40000304:	0027e793          	or	a5,a5,2
    40000308:	10079073          	csrw	sstatus,a5
    4000030c:	00813403          	ld	s0,8(sp)
    40000310:	01010113          	add	sp,sp,16
    40000314:	00008067          	ret

0000000040000318 <riscv_interrupt_init>:
    40000318:	ff010113          	add	sp,sp,-16
    4000031c:	00113423          	sd	ra,8(sp)
    40000320:	00813023          	sd	s0,0(sp)
    40000324:	01010413          	add	s0,sp,16
    40000328:	00001797          	auipc	a5,0x1
    4000032c:	6c878793          	add	a5,a5,1736 # 400019f0 <k_interrupt_vector>
    40000330:	10579073          	csrw	stvec,a5
    40000334:	00000097          	auipc	ra,0x0
    40000338:	518080e7          	jalr	1304(ra) # 4000084c <plic_interrupt_enable>
    4000033c:	00000097          	auipc	ra,0x0
    40000340:	fb8080e7          	jalr	-72(ra) # 400002f4 <riscv_interrupt_enable>
    40000344:	00813083          	ld	ra,8(sp)
    40000348:	00013403          	ld	s0,0(sp)
    4000034c:	01010113          	add	sp,sp,16
    40000350:	00008067          	ret

0000000040000354 <riscv_interrupt_disable>:
    40000354:	ff010113          	add	sp,sp,-16
    40000358:	00813423          	sd	s0,8(sp)
    4000035c:	01010413          	add	s0,sp,16
    40000360:	100027f3          	csrr	a5,sstatus
    40000364:	ffc7f793          	and	a5,a5,-4
    40000368:	10079073          	csrw	sstatus,a5
    4000036c:	00813403          	ld	s0,8(sp)
    40000370:	01010113          	add	sp,sp,16
    40000374:	00008067          	ret

0000000040000378 <riscv_get_interrupt_source>:
    40000378:	fe010113          	add	sp,sp,-32
    4000037c:	00813c23          	sd	s0,24(sp)
    40000380:	02010413          	add	s0,sp,32
    40000384:	102017b7          	lui	a5,0x10201
    40000388:	00478793          	add	a5,a5,4 # 10201004 <_start-0x2fdfeffc>
    4000038c:	0007a783          	lw	a5,0(a5)
    40000390:	fef42623          	sw	a5,-20(s0)
    40000394:	fec42503          	lw	a0,-20(s0)
    40000398:	01813403          	ld	s0,24(sp)
    4000039c:	02010113          	add	sp,sp,32
    400003a0:	00008067          	ret

00000000400003a4 <riscv_external_interrupt_source_done>:
    400003a4:	ff010113          	add	sp,sp,-16
    400003a8:	00813423          	sd	s0,8(sp)
    400003ac:	01010413          	add	s0,sp,16
    400003b0:	102017b7          	lui	a5,0x10201
    400003b4:	00a7a223          	sw	a0,4(a5) # 10201004 <_start-0x2fdfeffc>
    400003b8:	00813403          	ld	s0,8(sp)
    400003bc:	01010113          	add	sp,sp,16
    400003c0:	00008067          	ret

00000000400003c4 <riscv_external_interrupt_handler>:
    400003c4:	fd010113          	add	sp,sp,-48
    400003c8:	02113423          	sd	ra,40(sp)
    400003cc:	02813023          	sd	s0,32(sp)
    400003d0:	00913c23          	sd	s1,24(sp)
    400003d4:	03010413          	add	s0,sp,48
    400003d8:	00000097          	auipc	ra,0x0
    400003dc:	fa0080e7          	jalr	-96(ra) # 40000378 <riscv_get_interrupt_source>
    400003e0:	0005049b          	sext.w	s1,a0
    400003e4:	01200793          	li	a5,18
    400003e8:	04f48063          	beq	s1,a5,40000428 <riscv_external_interrupt_handler+0x64>
    400003ec:	04b00793          	li	a5,75
    400003f0:	00f49c63          	bne	s1,a5,40000408 <riscv_external_interrupt_handler+0x44>
    400003f4:	00001097          	auipc	ra,0x1
    400003f8:	764080e7          	jalr	1892(ra) # 40001b58 <k_time_stamp_update>
    400003fc:	00000513          	li	a0,0
    40000400:	00000097          	auipc	ra,0x0
    40000404:	574080e7          	jalr	1396(ra) # 40000974 <timer_pending_clear>
    40000408:	00048513          	mv	a0,s1
    4000040c:	00000097          	auipc	ra,0x0
    40000410:	f98080e7          	jalr	-104(ra) # 400003a4 <riscv_external_interrupt_source_done>
    40000414:	02813083          	ld	ra,40(sp)
    40000418:	02013403          	ld	s0,32(sp)
    4000041c:	01813483          	ld	s1,24(sp)
    40000420:	03010113          	add	sp,sp,48
    40000424:	00008067          	ret
    40000428:	fdf40513          	add	a0,s0,-33
    4000042c:	00001097          	auipc	ra,0x1
    40000430:	108080e7          	jalr	264(ra) # 40001534 <k_getc>
    40000434:	fc054ae3          	bltz	a0,40000408 <riscv_external_interrupt_handler+0x44>
    40000438:	fdf44503          	lbu	a0,-33(s0)
    4000043c:	00002097          	auipc	ra,0x2
    40000440:	37c080e7          	jalr	892(ra) # 400027b8 <console_get_char>
    40000444:	fdf40513          	add	a0,s0,-33
    40000448:	00001097          	auipc	ra,0x1
    4000044c:	0ec080e7          	jalr	236(ra) # 40001534 <k_getc>
    40000450:	fe0554e3          	bgez	a0,40000438 <riscv_external_interrupt_handler+0x74>
    40000454:	fb5ff06f          	j	40000408 <riscv_external_interrupt_handler+0x44>

0000000040000458 <riscv_interrupt_handler>:
    40000458:	14202773          	csrr	a4,scause
    4000045c:	142027f3          	csrr	a5,scause
    40000460:	00074463          	bltz	a4,40000468 <riscv_interrupt_handler+0x10>
    40000464:	00008067          	ret
    40000468:	00179793          	sll	a5,a5,0x1
    4000046c:	0017d793          	srl	a5,a5,0x1
    40000470:	00900713          	li	a4,9
    40000474:	fee798e3          	bne	a5,a4,40000464 <riscv_interrupt_handler+0xc>
    40000478:	ff010113          	add	sp,sp,-16
    4000047c:	00113423          	sd	ra,8(sp)
    40000480:	00813023          	sd	s0,0(sp)
    40000484:	01010413          	add	s0,sp,16
    40000488:	00000097          	auipc	ra,0x0
    4000048c:	f3c080e7          	jalr	-196(ra) # 400003c4 <riscv_external_interrupt_handler>
    40000490:	00813083          	ld	ra,8(sp)
    40000494:	00013403          	ld	s0,0(sp)
    40000498:	01010113          	add	sp,sp,16
    4000049c:	00008067          	ret

00000000400004a0 <get_cpu_id>:
    400004a0:	ff010113          	add	sp,sp,-16
    400004a4:	00813423          	sd	s0,8(sp)
    400004a8:	01010413          	add	s0,sp,16
    400004ac:	00020793          	mv	a5,tp
    400004b0:	0007a503          	lw	a0,0(a5)
    400004b4:	00813403          	ld	s0,8(sp)
    400004b8:	01010113          	add	sp,sp,16
    400004bc:	00008067          	ret

00000000400004c0 <riscv_spinlock_init>:
    400004c0:	ff010113          	add	sp,sp,-16
    400004c4:	00813423          	sd	s0,8(sp)
    400004c8:	01010413          	add	s0,sp,16
    400004cc:	00b53023          	sd	a1,0(a0)
    400004d0:	00052423          	sw	zero,8(a0)
    400004d4:	00053823          	sd	zero,16(a0)
    400004d8:	00813403          	ld	s0,8(sp)
    400004dc:	01010113          	add	sp,sp,16
    400004e0:	00008067          	ret

00000000400004e4 <riscv_spinlock_lock>:
    400004e4:	fe010113          	add	sp,sp,-32
    400004e8:	00113c23          	sd	ra,24(sp)
    400004ec:	00813823          	sd	s0,16(sp)
    400004f0:	00913423          	sd	s1,8(sp)
    400004f4:	01213023          	sd	s2,0(sp)
    400004f8:	02010413          	add	s0,sp,32
    400004fc:	00050493          	mv	s1,a0
    40000500:	10002973          	csrr	s2,sstatus
    40000504:	00000097          	auipc	ra,0x0
    40000508:	f9c080e7          	jalr	-100(ra) # 400004a0 <get_cpu_id>
    4000050c:	00451713          	sll	a4,a0,0x4
    40000510:	00a70733          	add	a4,a4,a0
    40000514:	00471713          	sll	a4,a4,0x4
    40000518:	0001a797          	auipc	a5,0x1a
    4000051c:	de878793          	add	a5,a5,-536 # 4001a300 <cpu_list>
    40000520:	00e787b3          	add	a5,a5,a4
    40000524:	0047a703          	lw	a4,4(a5)
    40000528:	0017071b          	addw	a4,a4,1
    4000052c:	00e7a223          	sw	a4,4(a5)
    40000530:	00297913          	and	s2,s2,2
    40000534:	0127a423          	sw	s2,8(a5)
    40000538:	00100713          	li	a4,1
    4000053c:	00070793          	mv	a5,a4
    40000540:	00848693          	add	a3,s1,8
    40000544:	0cf6a7af          	amoswap.w.aq	a5,a5,(a3)
    40000548:	0007879b          	sext.w	a5,a5
    4000054c:	fe0798e3          	bnez	a5,4000053c <riscv_spinlock_lock+0x58>
    40000550:	0ff0000f          	fence
    40000554:	00451793          	sll	a5,a0,0x4
    40000558:	00a787b3          	add	a5,a5,a0
    4000055c:	00479793          	sll	a5,a5,0x4
    40000560:	0001a717          	auipc	a4,0x1a
    40000564:	da070713          	add	a4,a4,-608 # 4001a300 <cpu_list>
    40000568:	00e787b3          	add	a5,a5,a4
    4000056c:	00f4b823          	sd	a5,16(s1)
    40000570:	00000097          	auipc	ra,0x0
    40000574:	de4080e7          	jalr	-540(ra) # 40000354 <riscv_interrupt_disable>
    40000578:	01813083          	ld	ra,24(sp)
    4000057c:	01013403          	ld	s0,16(sp)
    40000580:	00813483          	ld	s1,8(sp)
    40000584:	00013903          	ld	s2,0(sp)
    40000588:	02010113          	add	sp,sp,32
    4000058c:	00008067          	ret

0000000040000590 <riscv_spinlock_unlock>:
    40000590:	fe010113          	add	sp,sp,-32
    40000594:	00113c23          	sd	ra,24(sp)
    40000598:	00813823          	sd	s0,16(sp)
    4000059c:	00913423          	sd	s1,8(sp)
    400005a0:	02010413          	add	s0,sp,32
    400005a4:	00050493          	mv	s1,a0
    400005a8:	00000097          	auipc	ra,0x0
    400005ac:	ef8080e7          	jalr	-264(ra) # 400004a0 <get_cpu_id>
    400005b0:	0004b823          	sd	zero,16(s1)
    400005b4:	0ff0000f          	fence
    400005b8:	00848793          	add	a5,s1,8
    400005bc:	0f50000f          	fence	iorw,ow
    400005c0:	0807a02f          	amoswap.w	zero,zero,(a5)
    400005c4:	00451793          	sll	a5,a0,0x4
    400005c8:	00a787b3          	add	a5,a5,a0
    400005cc:	00479793          	sll	a5,a5,0x4
    400005d0:	0001a717          	auipc	a4,0x1a
    400005d4:	d3070713          	add	a4,a4,-720 # 4001a300 <cpu_list>
    400005d8:	00f707b3          	add	a5,a4,a5
    400005dc:	0047a703          	lw	a4,4(a5)
    400005e0:	fff7071b          	addw	a4,a4,-1
    400005e4:	0007069b          	sext.w	a3,a4
    400005e8:	00e7a223          	sw	a4,4(a5)
    400005ec:	02069263          	bnez	a3,40000610 <riscv_spinlock_unlock+0x80>
    400005f0:	00451793          	sll	a5,a0,0x4
    400005f4:	00a787b3          	add	a5,a5,a0
    400005f8:	00479793          	sll	a5,a5,0x4
    400005fc:	0001a717          	auipc	a4,0x1a
    40000600:	d0470713          	add	a4,a4,-764 # 4001a300 <cpu_list>
    40000604:	00f707b3          	add	a5,a4,a5
    40000608:	0087a783          	lw	a5,8(a5)
    4000060c:	00079c63          	bnez	a5,40000624 <riscv_spinlock_unlock+0x94>
    40000610:	01813083          	ld	ra,24(sp)
    40000614:	01013403          	ld	s0,16(sp)
    40000618:	00813483          	ld	s1,8(sp)
    4000061c:	02010113          	add	sp,sp,32
    40000620:	00008067          	ret
    40000624:	00000097          	auipc	ra,0x0
    40000628:	cd0080e7          	jalr	-816(ra) # 400002f4 <riscv_interrupt_enable>
    4000062c:	fe5ff06f          	j	40000610 <riscv_spinlock_unlock+0x80>

0000000040000630 <riscv_general_spinlock_init>:
    40000630:	fb010113          	add	sp,sp,-80
    40000634:	04113423          	sd	ra,72(sp)
    40000638:	04813023          	sd	s0,64(sp)
    4000063c:	02913c23          	sd	s1,56(sp)
    40000640:	03213823          	sd	s2,48(sp)
    40000644:	03313423          	sd	s3,40(sp)
    40000648:	03413023          	sd	s4,32(sp)
    4000064c:	05010413          	add	s0,sp,80
    40000650:	0001a497          	auipc	s1,0x1a
    40000654:	53048493          	add	s1,s1,1328 # 4001ab80 <general_spinlocks>
    40000658:	00000913          	li	s2,0
    4000065c:	00019a17          	auipc	s4,0x19
    40000660:	a64a0a13          	add	s4,s4,-1436 # 400190c0 <kernel_text_end+0x160c0>
    40000664:	00a00993          	li	s3,10
    40000668:	00090613          	mv	a2,s2
    4000066c:	000a0593          	mv	a1,s4
    40000670:	fb040513          	add	a0,s0,-80
    40000674:	00001097          	auipc	ra,0x1
    40000678:	b00080e7          	jalr	-1280(ra) # 40001174 <k_sprintf>
    4000067c:	fb040793          	add	a5,s0,-80
    40000680:	00f4b023          	sd	a5,0(s1)
    40000684:	0004a423          	sw	zero,8(s1)
    40000688:	0004b823          	sd	zero,16(s1)
    4000068c:	0019091b          	addw	s2,s2,1
    40000690:	01848493          	add	s1,s1,24
    40000694:	fd391ae3          	bne	s2,s3,40000668 <riscv_general_spinlock_init+0x38>
    40000698:	04813083          	ld	ra,72(sp)
    4000069c:	04013403          	ld	s0,64(sp)
    400006a0:	03813483          	ld	s1,56(sp)
    400006a4:	03013903          	ld	s2,48(sp)
    400006a8:	02813983          	ld	s3,40(sp)
    400006ac:	02013a03          	ld	s4,32(sp)
    400006b0:	05010113          	add	sp,sp,80
    400006b4:	00008067          	ret

00000000400006b8 <riscv_general_spinlock_lock>:
    400006b8:	ff010113          	add	sp,sp,-16
    400006bc:	00113423          	sd	ra,8(sp)
    400006c0:	00813023          	sd	s0,0(sp)
    400006c4:	01010413          	add	s0,sp,16
    400006c8:	00151793          	sll	a5,a0,0x1
    400006cc:	00a787b3          	add	a5,a5,a0
    400006d0:	00379793          	sll	a5,a5,0x3
    400006d4:	0001a517          	auipc	a0,0x1a
    400006d8:	4ac50513          	add	a0,a0,1196 # 4001ab80 <general_spinlocks>
    400006dc:	00f50533          	add	a0,a0,a5
    400006e0:	00000097          	auipc	ra,0x0
    400006e4:	e04080e7          	jalr	-508(ra) # 400004e4 <riscv_spinlock_lock>
    400006e8:	00813083          	ld	ra,8(sp)
    400006ec:	00013403          	ld	s0,0(sp)
    400006f0:	01010113          	add	sp,sp,16
    400006f4:	00008067          	ret

00000000400006f8 <riscv_general_spinlock_unlock>:
    400006f8:	ff010113          	add	sp,sp,-16
    400006fc:	00113423          	sd	ra,8(sp)
    40000700:	00813023          	sd	s0,0(sp)
    40000704:	01010413          	add	s0,sp,16
    40000708:	00151793          	sll	a5,a0,0x1
    4000070c:	00a787b3          	add	a5,a5,a0
    40000710:	00379793          	sll	a5,a5,0x3
    40000714:	0001a517          	auipc	a0,0x1a
    40000718:	46c50513          	add	a0,a0,1132 # 4001ab80 <general_spinlocks>
    4000071c:	00f50533          	add	a0,a0,a5
    40000720:	00000097          	auipc	ra,0x0
    40000724:	e70080e7          	jalr	-400(ra) # 40000590 <riscv_spinlock_unlock>
    40000728:	00813083          	ld	ra,8(sp)
    4000072c:	00013403          	ld	s0,0(sp)
    40000730:	01010113          	add	sp,sp,16
    40000734:	00008067          	ret

0000000040000738 <uart_init>:
    40000738:	ff010113          	add	sp,sp,-16
    4000073c:	00813423          	sd	s0,8(sp)
    40000740:	01010413          	add	s0,sp,16
    40000744:	025007b7          	lui	a5,0x2500
    40000748:	0007a223          	sw	zero,4(a5) # 2500004 <_start-0x3daffffc>
    4000074c:	02500737          	lui	a4,0x2500
    40000750:	00100693          	li	a3,1
    40000754:	00d72423          	sw	a3,8(a4) # 2500008 <_start-0x3daffff8>
    40000758:	02500737          	lui	a4,0x2500
    4000075c:	00300613          	li	a2,3
    40000760:	00c72623          	sw	a2,12(a4) # 250000c <_start-0x3daffff4>
    40000764:	00d7a223          	sw	a3,4(a5)
    40000768:	00813403          	ld	s0,8(sp)
    4000076c:	01010113          	add	sp,sp,16
    40000770:	00008067          	ret

0000000040000774 <serial_print_char>:
    40000774:	fe010113          	add	sp,sp,-32
    40000778:	00813c23          	sd	s0,24(sp)
    4000077c:	02010413          	add	s0,sp,32
    40000780:	02500737          	lui	a4,0x2500
    40000784:	01470713          	add	a4,a4,20 # 2500014 <_start-0x3dafffec>
    40000788:	00072783          	lw	a5,0(a4)
    4000078c:	fef42623          	sw	a5,-20(s0)
    40000790:	fec42783          	lw	a5,-20(s0)
    40000794:	0207f793          	and	a5,a5,32
    40000798:	fe0788e3          	beqz	a5,40000788 <serial_print_char+0x14>
    4000079c:	0005051b          	sext.w	a0,a0
    400007a0:	025007b7          	lui	a5,0x2500
    400007a4:	00a7a023          	sw	a0,0(a5) # 2500000 <_start-0x3db00000>
    400007a8:	01813403          	ld	s0,24(sp)
    400007ac:	02010113          	add	sp,sp,32
    400007b0:	00008067          	ret

00000000400007b4 <serial_receive_data>:
    400007b4:	fe010113          	add	sp,sp,-32
    400007b8:	00813c23          	sd	s0,24(sp)
    400007bc:	02010413          	add	s0,sp,32
    400007c0:	025007b7          	lui	a5,0x2500
    400007c4:	01478793          	add	a5,a5,20 # 2500014 <_start-0x3dafffec>
    400007c8:	0007a783          	lw	a5,0(a5)
    400007cc:	fef42423          	sw	a5,-24(s0)
    400007d0:	fe842783          	lw	a5,-24(s0)
    400007d4:	0017f793          	and	a5,a5,1
    400007d8:	02078263          	beqz	a5,400007fc <serial_receive_data+0x48>
    400007dc:	025007b7          	lui	a5,0x2500
    400007e0:	0007a783          	lw	a5,0(a5) # 2500000 <_start-0x3db00000>
    400007e4:	fef42623          	sw	a5,-20(s0)
    400007e8:	fec42503          	lw	a0,-20(s0)
    400007ec:	0005051b          	sext.w	a0,a0
    400007f0:	01813403          	ld	s0,24(sp)
    400007f4:	02010113          	add	sp,sp,32
    400007f8:	00008067          	ret
    400007fc:	fff00513          	li	a0,-1
    40000800:	ff1ff06f          	j	400007f0 <serial_receive_data+0x3c>

0000000040000804 <serial_print>:
    40000804:	fe010113          	add	sp,sp,-32
    40000808:	00113c23          	sd	ra,24(sp)
    4000080c:	00813823          	sd	s0,16(sp)
    40000810:	00913423          	sd	s1,8(sp)
    40000814:	02010413          	add	s0,sp,32
    40000818:	00050493          	mv	s1,a0
    4000081c:	00054503          	lbu	a0,0(a0)
    40000820:	00050c63          	beqz	a0,40000838 <serial_print+0x34>
    40000824:	00000097          	auipc	ra,0x0
    40000828:	f50080e7          	jalr	-176(ra) # 40000774 <serial_print_char>
    4000082c:	00148493          	add	s1,s1,1
    40000830:	0004c503          	lbu	a0,0(s1)
    40000834:	fe0518e3          	bnez	a0,40000824 <serial_print+0x20>
    40000838:	01813083          	ld	ra,24(sp)
    4000083c:	01013403          	ld	s0,16(sp)
    40000840:	00813483          	ld	s1,8(sp)
    40000844:	02010113          	add	sp,sp,32
    40000848:	00008067          	ret

000000004000084c <plic_interrupt_enable>:
    4000084c:	ff010113          	add	sp,sp,-16
    40000850:	00813423          	sd	s0,8(sp)
    40000854:	01010413          	add	s0,sp,16
    40000858:	100007b7          	lui	a5,0x10000
    4000085c:	00478793          	add	a5,a5,4 # 10000004 <_start-0x2ffffffc>
    40000860:	00100613          	li	a2,1
    40000864:	100006b7          	lui	a3,0x10000
    40000868:	40068693          	add	a3,a3,1024 # 10000400 <_start-0x2ffffc00>
    4000086c:	02079713          	sll	a4,a5,0x20
    40000870:	02075713          	srl	a4,a4,0x20
    40000874:	00c72023          	sw	a2,0(a4)
    40000878:	0047879b          	addw	a5,a5,4
    4000087c:	fed798e3          	bne	a5,a3,4000086c <plic_interrupt_enable+0x20>
    40000880:	100027b7          	lui	a5,0x10002
    40000884:	08078793          	add	a5,a5,128 # 10002080 <_start-0x2fffdf80>
    40000888:	fff00613          	li	a2,-1
    4000088c:	100026b7          	lui	a3,0x10002
    40000890:	0a868693          	add	a3,a3,168 # 100020a8 <_start-0x2fffdf58>
    40000894:	02079713          	sll	a4,a5,0x20
    40000898:	02075713          	srl	a4,a4,0x20
    4000089c:	00c72023          	sw	a2,0(a4)
    400008a0:	0047879b          	addw	a5,a5,4
    400008a4:	fed798e3          	bne	a5,a3,40000894 <plic_interrupt_enable+0x48>
    400008a8:	00813403          	ld	s0,8(sp)
    400008ac:	01010113          	add	sp,sp,16
    400008b0:	00008067          	ret

00000000400008b4 <plic_interrupt_disable>:
    400008b4:	ff010113          	add	sp,sp,-16
    400008b8:	00813423          	sd	s0,8(sp)
    400008bc:	01010413          	add	s0,sp,16
    400008c0:	100007b7          	lui	a5,0x10000
    400008c4:	00478793          	add	a5,a5,4 # 10000004 <_start-0x2ffffffc>
    400008c8:	100006b7          	lui	a3,0x10000
    400008cc:	40068693          	add	a3,a3,1024 # 10000400 <_start-0x2ffffc00>
    400008d0:	02079713          	sll	a4,a5,0x20
    400008d4:	02075713          	srl	a4,a4,0x20
    400008d8:	00072023          	sw	zero,0(a4)
    400008dc:	0047879b          	addw	a5,a5,4
    400008e0:	fed798e3          	bne	a5,a3,400008d0 <plic_interrupt_disable+0x1c>
    400008e4:	100027b7          	lui	a5,0x10002
    400008e8:	08078793          	add	a5,a5,128 # 10002080 <_start-0x2fffdf80>
    400008ec:	100026b7          	lui	a3,0x10002
    400008f0:	0a868693          	add	a3,a3,168 # 100020a8 <_start-0x2fffdf58>
    400008f4:	02079713          	sll	a4,a5,0x20
    400008f8:	02075713          	srl	a4,a4,0x20
    400008fc:	00072023          	sw	zero,0(a4)
    40000900:	0047879b          	addw	a5,a5,4
    40000904:	fed798e3          	bne	a5,a3,400008f4 <plic_interrupt_disable+0x40>
    40000908:	00813403          	ld	s0,8(sp)
    4000090c:	01010113          	add	sp,sp,16
    40000910:	00008067          	ret

0000000040000914 <plic_s_mode_access>:
    40000914:	ff010113          	add	sp,sp,-16
    40000918:	00813423          	sd	s0,8(sp)
    4000091c:	01010413          	add	s0,sp,16
    40000920:	102007b7          	lui	a5,0x10200
    40000924:	00100713          	li	a4,1
    40000928:	fee7ae23          	sw	a4,-4(a5) # 101ffffc <_start-0x2fe00004>
    4000092c:	00813403          	ld	s0,8(sp)
    40000930:	01010113          	add	sp,sp,16
    40000934:	00008067          	ret

0000000040000938 <timer_interrupt_enable>:
    40000938:	fe010113          	add	sp,sp,-32
    4000093c:	00813c23          	sd	s0,24(sp)
    40000940:	02010413          	add	s0,sp,32
    40000944:	020506b7          	lui	a3,0x2050
    40000948:	0006a783          	lw	a5,0(a3) # 2050000 <_start-0x3dfb0000>
    4000094c:	fef42623          	sw	a5,-20(s0)
    40000950:	fec42783          	lw	a5,-20(s0)
    40000954:	00100713          	li	a4,1
    40000958:	00a7173b          	sllw	a4,a4,a0
    4000095c:	00e7e7b3          	or	a5,a5,a4
    40000960:	0007879b          	sext.w	a5,a5
    40000964:	00f6a023          	sw	a5,0(a3)
    40000968:	01813403          	ld	s0,24(sp)
    4000096c:	02010113          	add	sp,sp,32
    40000970:	00008067          	ret

0000000040000974 <timer_pending_clear>:
    40000974:	ff010113          	add	sp,sp,-16
    40000978:	00813423          	sd	s0,8(sp)
    4000097c:	01010413          	add	s0,sp,16
    40000980:	00100793          	li	a5,1
    40000984:	00a7953b          	sllw	a0,a5,a0
    40000988:	020507b7          	lui	a5,0x2050
    4000098c:	00a7a223          	sw	a0,4(a5) # 2050004 <_start-0x3dfafffc>
    40000990:	00813403          	ld	s0,8(sp)
    40000994:	01010113          	add	sp,sp,16
    40000998:	00008067          	ret

000000004000099c <timer_set_prescale>:
    4000099c:	fe010113          	add	sp,sp,-32
    400009a0:	00813c23          	sd	s0,24(sp)
    400009a4:	02010413          	add	s0,sp,32
    400009a8:	002057b7          	lui	a5,0x205
    400009ac:	0017879b          	addw	a5,a5,1 # 205001 <_start-0x3fdfafff>
    400009b0:	00a787bb          	addw	a5,a5,a0
    400009b4:	0047979b          	sllw	a5,a5,0x4
    400009b8:	02079793          	sll	a5,a5,0x20
    400009bc:	0207d793          	srl	a5,a5,0x20
    400009c0:	0007a703          	lw	a4,0(a5)
    400009c4:	fee42623          	sw	a4,-20(s0)
    400009c8:	fec42703          	lw	a4,-20(s0)
    400009cc:	0045959b          	sllw	a1,a1,0x4
    400009d0:	00b76733          	or	a4,a4,a1
    400009d4:	0007071b          	sext.w	a4,a4
    400009d8:	00e7a023          	sw	a4,0(a5)
    400009dc:	01813403          	ld	s0,24(sp)
    400009e0:	02010113          	add	sp,sp,32
    400009e4:	00008067          	ret

00000000400009e8 <timer_start>:
    400009e8:	fb010113          	add	sp,sp,-80
    400009ec:	04113423          	sd	ra,72(sp)
    400009f0:	04813023          	sd	s0,64(sp)
    400009f4:	03213823          	sd	s2,48(sp)
    400009f8:	03313423          	sd	s3,40(sp)
    400009fc:	03413023          	sd	s4,32(sp)
    40000a00:	05010413          	add	s0,sp,80
    40000a04:	00050993          	mv	s3,a0
    40000a08:	0ff0000f          	fence
    40000a0c:	0045191b          	sllw	s2,a0,0x4
    40000a10:	020507b7          	lui	a5,0x2050
    40000a14:	0147879b          	addw	a5,a5,20 # 2050014 <_start-0x3dfaffec>
    40000a18:	00f907bb          	addw	a5,s2,a5
    40000a1c:	02079793          	sll	a5,a5,0x20
    40000a20:	0207d793          	srl	a5,a5,0x20
    40000a24:	0007a703          	lw	a4,0(a5)
    40000a28:	fce42223          	sw	a4,-60(s0)
    40000a2c:	fc442703          	lw	a4,-60(s0)
    40000a30:	016e36b7          	lui	a3,0x16e3
    40000a34:	6006869b          	addw	a3,a3,1536 # 16e3600 <_start-0x3e91ca00>
    40000a38:	02b6c6bb          	divw	a3,a3,a1
    40000a3c:	00d76733          	or	a4,a4,a3
    40000a40:	0007071b          	sext.w	a4,a4
    40000a44:	00e7a023          	sw	a4,0(a5)
    40000a48:	020507b7          	lui	a5,0x2050
    40000a4c:	0107879b          	addw	a5,a5,16 # 2050010 <_start-0x3dfafff0>
    40000a50:	00f9093b          	addw	s2,s2,a5
    40000a54:	02091a13          	sll	s4,s2,0x20
    40000a58:	020a5a13          	srl	s4,s4,0x20
    40000a5c:	000a2783          	lw	a5,0(s4)
    40000a60:	fcf42023          	sw	a5,-64(s0)
    40000a64:	fc042783          	lw	a5,-64(s0)
    40000a68:	fcf42623          	sw	a5,-52(s0)
    40000a6c:	00100593          	li	a1,1
    40000a70:	00000097          	auipc	ra,0x0
    40000a74:	f2c080e7          	jalr	-212(ra) # 4000099c <timer_set_prescale>
    40000a78:	fcc42783          	lw	a5,-52(s0)
    40000a7c:	0027e793          	or	a5,a5,2
    40000a80:	fcf42623          	sw	a5,-52(s0)
    40000a84:	fcc42783          	lw	a5,-52(s0)
    40000a88:	0007879b          	sext.w	a5,a5
    40000a8c:	00fa2023          	sw	a5,0(s4)
    40000a90:	000a2783          	lw	a5,0(s4)
    40000a94:	faf42e23          	sw	a5,-68(s0)
    40000a98:	fbc42783          	lw	a5,-68(s0)
    40000a9c:	fcf42623          	sw	a5,-52(s0)
    40000aa0:	fcc42783          	lw	a5,-52(s0)
    40000aa4:	0027f793          	and	a5,a5,2
    40000aa8:	02078a63          	beqz	a5,40000adc <timer_start+0xf4>
    40000aac:	02913c23          	sd	s1,56(sp)
    40000ab0:	0009049b          	sext.w	s1,s2
    40000ab4:	02049713          	sll	a4,s1,0x20
    40000ab8:	02075713          	srl	a4,a4,0x20
    40000abc:	00072783          	lw	a5,0(a4)
    40000ac0:	fcf42423          	sw	a5,-56(s0)
    40000ac4:	fc842783          	lw	a5,-56(s0)
    40000ac8:	fcf42623          	sw	a5,-52(s0)
    40000acc:	fcc42783          	lw	a5,-52(s0)
    40000ad0:	0027f793          	and	a5,a5,2
    40000ad4:	fe0794e3          	bnez	a5,40000abc <timer_start+0xd4>
    40000ad8:	03813483          	ld	s1,56(sp)
    40000adc:	fcc42783          	lw	a5,-52(s0)
    40000ae0:	0017e793          	or	a5,a5,1
    40000ae4:	fcf42623          	sw	a5,-52(s0)
    40000ae8:	fcc42783          	lw	a5,-52(s0)
    40000aec:	0007879b          	sext.w	a5,a5
    40000af0:	02091913          	sll	s2,s2,0x20
    40000af4:	02095913          	srl	s2,s2,0x20
    40000af8:	00f92023          	sw	a5,0(s2)
    40000afc:	00098513          	mv	a0,s3
    40000b00:	00000097          	auipc	ra,0x0
    40000b04:	e38080e7          	jalr	-456(ra) # 40000938 <timer_interrupt_enable>
    40000b08:	0ff0000f          	fence
    40000b0c:	04813083          	ld	ra,72(sp)
    40000b10:	04013403          	ld	s0,64(sp)
    40000b14:	03013903          	ld	s2,48(sp)
    40000b18:	02813983          	ld	s3,40(sp)
    40000b1c:	02013a03          	ld	s4,32(sp)
    40000b20:	05010113          	add	sp,sp,80
    40000b24:	00008067          	ret

0000000040000b28 <timer_stop>:
    40000b28:	fe010113          	add	sp,sp,-32
    40000b2c:	00813c23          	sd	s0,24(sp)
    40000b30:	02010413          	add	s0,sp,32
    40000b34:	0ff0000f          	fence
    40000b38:	020506b7          	lui	a3,0x2050
    40000b3c:	0006a783          	lw	a5,0(a3) # 2050000 <_start-0x3dfb0000>
    40000b40:	fef42623          	sw	a5,-20(s0)
    40000b44:	fec42783          	lw	a5,-20(s0)
    40000b48:	00100713          	li	a4,1
    40000b4c:	00a7153b          	sllw	a0,a4,a0
    40000b50:	fff54513          	not	a0,a0
    40000b54:	00a7f7b3          	and	a5,a5,a0
    40000b58:	0007879b          	sext.w	a5,a5
    40000b5c:	00f6a023          	sw	a5,0(a3)
    40000b60:	0ff0000f          	fence
    40000b64:	01813403          	ld	s0,24(sp)
    40000b68:	02010113          	add	sp,sp,32
    40000b6c:	00008067          	ret

0000000040000b70 <boot_cfg>:
    40000b70:	e6010113          	add	sp,sp,-416
    40000b74:	18113c23          	sd	ra,408(sp)
    40000b78:	18813823          	sd	s0,400(sp)
    40000b7c:	1a010413          	add	s0,sp,416
    40000b80:	300027f3          	csrr	a5,mstatus
    40000b84:	ffffe737          	lui	a4,0xffffe
    40000b88:	7ff70713          	add	a4,a4,2047 # ffffffffffffe7ff <kernel_end+0xffffffffbfedd7ff>
    40000b8c:	00e7f7b3          	and	a5,a5,a4
    40000b90:	00001737          	lui	a4,0x1
    40000b94:	80070713          	add	a4,a4,-2048 # 800 <_start-0x3ffff800>
    40000b98:	00e7e7b3          	or	a5,a5,a4
    40000b9c:	30079073          	csrw	mstatus,a5
    40000ba0:	00000797          	auipc	a5,0x0
    40000ba4:	0fc78793          	add	a5,a5,252 # 40000c9c <main>
    40000ba8:	34179073          	csrw	mepc,a5
    40000bac:	12000073          	sfence.vma
    40000bb0:	00000793          	li	a5,0
    40000bb4:	18079073          	csrw	satp,a5
    40000bb8:	12000073          	sfence.vma
    40000bbc:	000107b7          	lui	a5,0x10
    40000bc0:	fff78793          	add	a5,a5,-1 # ffff <_start-0x3fff0001>
    40000bc4:	30279073          	csrw	medeleg,a5
    40000bc8:	30379073          	csrw	mideleg,a5
    40000bcc:	104027f3          	csrr	a5,sie
    40000bd0:	2227e793          	or	a5,a5,546
    40000bd4:	10479073          	csrw	sie,a5
    40000bd8:	00000097          	auipc	ra,0x0
    40000bdc:	d3c080e7          	jalr	-708(ra) # 40000914 <plic_s_mode_access>
    40000be0:	fff00793          	li	a5,-1
    40000be4:	3b079073          	csrw	pmpaddr0,a5
    40000be8:	00f00793          	li	a5,15
    40000bec:	3a079073          	csrw	pmpcfg0,a5
    40000bf0:	f14027f3          	csrr	a5,mhartid
    40000bf4:	e6f43023          	sd	a5,-416(s0)
    40000bf8:	e6040793          	add	a5,s0,-416
    40000bfc:	00078213          	mv	tp,a5
    40000c00:	30200073          	mret
    40000c04:	19813083          	ld	ra,408(sp)
    40000c08:	19013403          	ld	s0,400(sp)
    40000c0c:	1a010113          	add	sp,sp,416
    40000c10:	00008067          	ret

0000000040000c14 <kernel_init>:
    40000c14:	ff010113          	add	sp,sp,-16
    40000c18:	00113423          	sd	ra,8(sp)
    40000c1c:	00813023          	sd	s0,0(sp)
    40000c20:	01010413          	add	s0,sp,16
    40000c24:	00001097          	auipc	ra,0x1
    40000c28:	f14080e7          	jalr	-236(ra) # 40001b38 <k_time_stamp_init>
    40000c2c:	00000097          	auipc	ra,0x0
    40000c30:	114080e7          	jalr	276(ra) # 40000d40 <k_general_spinlock_init>
    40000c34:	00001097          	auipc	ra,0x1
    40000c38:	c44080e7          	jalr	-956(ra) # 40001878 <k_mem_paging_init>
    40000c3c:	00001097          	auipc	ra,0x1
    40000c40:	a04080e7          	jalr	-1532(ra) # 40001640 <k_pagetable_init>
    40000c44:	00001097          	auipc	ra,0x1
    40000c48:	acc080e7          	jalr	-1332(ra) # 40001710 <k_vm_enable>
    40000c4c:	00001097          	auipc	ra,0x1
    40000c50:	d54080e7          	jalr	-684(ra) # 400019a0 <k_interrupt_init>
    40000c54:	00813083          	ld	ra,8(sp)
    40000c58:	00013403          	ld	s0,0(sp)
    40000c5c:	01010113          	add	sp,sp,16
    40000c60:	00008067          	ret

0000000040000c64 <peripheral_init>:
    40000c64:	ff010113          	add	sp,sp,-16
    40000c68:	00113423          	sd	ra,8(sp)
    40000c6c:	00813023          	sd	s0,0(sp)
    40000c70:	01010413          	add	s0,sp,16
    40000c74:	00000097          	auipc	ra,0x0
    40000c78:	ac4080e7          	jalr	-1340(ra) # 40000738 <uart_init>
    40000c7c:	3e800593          	li	a1,1000
    40000c80:	00000513          	li	a0,0
    40000c84:	00000097          	auipc	ra,0x0
    40000c88:	d64080e7          	jalr	-668(ra) # 400009e8 <timer_start>
    40000c8c:	00813083          	ld	ra,8(sp)
    40000c90:	00013403          	ld	s0,0(sp)
    40000c94:	01010113          	add	sp,sp,16
    40000c98:	00008067          	ret

0000000040000c9c <main>:
    40000c9c:	ff010113          	add	sp,sp,-16
    40000ca0:	00113423          	sd	ra,8(sp)
    40000ca4:	00813023          	sd	s0,0(sp)
    40000ca8:	01010413          	add	s0,sp,16
    40000cac:	00000097          	auipc	ra,0x0
    40000cb0:	f68080e7          	jalr	-152(ra) # 40000c14 <kernel_init>
    40000cb4:	00000097          	auipc	ra,0x0
    40000cb8:	fb0080e7          	jalr	-80(ra) # 40000c64 <peripheral_init>
    40000cbc:	00001097          	auipc	ra,0x1
    40000cc0:	2d0080e7          	jalr	720(ra) # 40001f8c <console_init>
    40000cc4:	0000006f          	j	40000cc4 <main+0x28>

0000000040000cc8 <k_spinlock_init>:
    40000cc8:	ff010113          	add	sp,sp,-16
    40000ccc:	00113423          	sd	ra,8(sp)
    40000cd0:	00813023          	sd	s0,0(sp)
    40000cd4:	01010413          	add	s0,sp,16
    40000cd8:	fffff097          	auipc	ra,0xfffff
    40000cdc:	7e8080e7          	jalr	2024(ra) # 400004c0 <riscv_spinlock_init>
    40000ce0:	00813083          	ld	ra,8(sp)
    40000ce4:	00013403          	ld	s0,0(sp)
    40000ce8:	01010113          	add	sp,sp,16
    40000cec:	00008067          	ret

0000000040000cf0 <k_spinlock_lock>:
    40000cf0:	ff010113          	add	sp,sp,-16
    40000cf4:	00113423          	sd	ra,8(sp)
    40000cf8:	00813023          	sd	s0,0(sp)
    40000cfc:	01010413          	add	s0,sp,16
    40000d00:	fffff097          	auipc	ra,0xfffff
    40000d04:	7e4080e7          	jalr	2020(ra) # 400004e4 <riscv_spinlock_lock>
    40000d08:	00813083          	ld	ra,8(sp)
    40000d0c:	00013403          	ld	s0,0(sp)
    40000d10:	01010113          	add	sp,sp,16
    40000d14:	00008067          	ret

0000000040000d18 <k_spinlock_unlock>:
    40000d18:	ff010113          	add	sp,sp,-16
    40000d1c:	00113423          	sd	ra,8(sp)
    40000d20:	00813023          	sd	s0,0(sp)
    40000d24:	01010413          	add	s0,sp,16
    40000d28:	00000097          	auipc	ra,0x0
    40000d2c:	868080e7          	jalr	-1944(ra) # 40000590 <riscv_spinlock_unlock>
    40000d30:	00813083          	ld	ra,8(sp)
    40000d34:	00013403          	ld	s0,0(sp)
    40000d38:	01010113          	add	sp,sp,16
    40000d3c:	00008067          	ret

0000000040000d40 <k_general_spinlock_init>:
    40000d40:	ff010113          	add	sp,sp,-16
    40000d44:	00113423          	sd	ra,8(sp)
    40000d48:	00813023          	sd	s0,0(sp)
    40000d4c:	01010413          	add	s0,sp,16
    40000d50:	00000097          	auipc	ra,0x0
    40000d54:	8e0080e7          	jalr	-1824(ra) # 40000630 <riscv_general_spinlock_init>
    40000d58:	00813083          	ld	ra,8(sp)
    40000d5c:	00013403          	ld	s0,0(sp)
    40000d60:	01010113          	add	sp,sp,16
    40000d64:	00008067          	ret

0000000040000d68 <k_general_spinlock_lock>:
    40000d68:	ff010113          	add	sp,sp,-16
    40000d6c:	00113423          	sd	ra,8(sp)
    40000d70:	00813023          	sd	s0,0(sp)
    40000d74:	01010413          	add	s0,sp,16
    40000d78:	00000097          	auipc	ra,0x0
    40000d7c:	940080e7          	jalr	-1728(ra) # 400006b8 <riscv_general_spinlock_lock>
    40000d80:	00813083          	ld	ra,8(sp)
    40000d84:	00013403          	ld	s0,0(sp)
    40000d88:	01010113          	add	sp,sp,16
    40000d8c:	00008067          	ret

0000000040000d90 <k_general_spinlock_unlock>:
    40000d90:	ff010113          	add	sp,sp,-16
    40000d94:	00113423          	sd	ra,8(sp)
    40000d98:	00813023          	sd	s0,0(sp)
    40000d9c:	01010413          	add	s0,sp,16
    40000da0:	00000097          	auipc	ra,0x0
    40000da4:	958080e7          	jalr	-1704(ra) # 400006f8 <riscv_general_spinlock_unlock>
    40000da8:	00813083          	ld	ra,8(sp)
    40000dac:	00013403          	ld	s0,0(sp)
    40000db0:	01010113          	add	sp,sp,16
    40000db4:	00008067          	ret

0000000040000db8 <k_printf>:
    40000db8:	ef010113          	add	sp,sp,-272
    40000dbc:	0c113423          	sd	ra,200(sp)
    40000dc0:	0c813023          	sd	s0,192(sp)
    40000dc4:	0a913c23          	sd	s1,184(sp)
    40000dc8:	0d010413          	add	s0,sp,208
    40000dcc:	00050493          	mv	s1,a0
    40000dd0:	00b43423          	sd	a1,8(s0)
    40000dd4:	00c43823          	sd	a2,16(s0)
    40000dd8:	00d43c23          	sd	a3,24(s0)
    40000ddc:	02e43023          	sd	a4,32(s0)
    40000de0:	02f43423          	sd	a5,40(s0)
    40000de4:	03043823          	sd	a6,48(s0)
    40000de8:	03143c23          	sd	a7,56(s0)
    40000dec:	00840793          	add	a5,s0,8
    40000df0:	faf43c23          	sd	a5,-72(s0)
    40000df4:	00054503          	lbu	a0,0(a0)
    40000df8:	32050863          	beqz	a0,40001128 <k_printf+0x370>
    40000dfc:	0b213823          	sd	s2,176(sp)
    40000e00:	0b313423          	sd	s3,168(sp)
    40000e04:	0b413023          	sd	s4,160(sp)
    40000e08:	09513c23          	sd	s5,152(sp)
    40000e0c:	09613823          	sd	s6,144(sp)
    40000e10:	02500993          	li	s3,37
    40000e14:	01500a13          	li	s4,21
    40000e18:	00018a97          	auipc	s5,0x18
    40000e1c:	6cca8a93          	add	s5,s5,1740 # 400194e4 <kernel_text_end+0x164e4>
    40000e20:	2b80006f          	j	400010d8 <k_printf+0x320>
    40000e24:	fb843783          	ld	a5,-72(s0)
    40000e28:	00878713          	add	a4,a5,8
    40000e2c:	fae43c23          	sd	a4,-72(s0)
    40000e30:	0007a783          	lw	a5,0(a5)
    40000e34:	0007cc63          	bltz	a5,40000e4c <k_printf+0x94>
    40000e38:	08079c63          	bnez	a5,40000ed0 <k_printf+0x118>
    40000e3c:	03000713          	li	a4,48
    40000e40:	f4e40823          	sb	a4,-176(s0)
    40000e44:	00078693          	mv	a3,a5
    40000e48:	0500006f          	j	40000e98 <k_printf+0xe0>
    40000e4c:	40f007bb          	negw	a5,a5
    40000e50:	00100813          	li	a6,1
    40000e54:	f5040613          	add	a2,s0,-176
    40000e58:	fff00693          	li	a3,-1
    40000e5c:	00a00593          	li	a1,10
    40000e60:	00068513          	mv	a0,a3
    40000e64:	0016869b          	addw	a3,a3,1
    40000e68:	02b7e73b          	remw	a4,a5,a1
    40000e6c:	0307071b          	addw	a4,a4,48
    40000e70:	00e60023          	sb	a4,0(a2)
    40000e74:	02b7c7bb          	divw	a5,a5,a1
    40000e78:	00160613          	add	a2,a2,1
    40000e7c:	fe0792e3          	bnez	a5,40000e60 <k_printf+0xa8>
    40000e80:	00080c63          	beqz	a6,40000e98 <k_printf+0xe0>
    40000e84:	0025069b          	addw	a3,a0,2
    40000e88:	fc068793          	add	a5,a3,-64
    40000e8c:	008787b3          	add	a5,a5,s0
    40000e90:	02d00713          	li	a4,45
    40000e94:	f8e78823          	sb	a4,-112(a5)
    40000e98:	2206ca63          	bltz	a3,400010cc <k_printf+0x314>
    40000e9c:	f5040793          	add	a5,s0,-176
    40000ea0:	00d784b3          	add	s1,a5,a3
    40000ea4:	f4f40793          	add	a5,s0,-177
    40000ea8:	00d78b33          	add	s6,a5,a3
    40000eac:	02069693          	sll	a3,a3,0x20
    40000eb0:	0206d693          	srl	a3,a3,0x20
    40000eb4:	40db0b33          	sub	s6,s6,a3
    40000eb8:	0004c503          	lbu	a0,0(s1)
    40000ebc:	00000097          	auipc	ra,0x0
    40000ec0:	8b8080e7          	jalr	-1864(ra) # 40000774 <serial_print_char>
    40000ec4:	fff48493          	add	s1,s1,-1
    40000ec8:	fe9b18e3          	bne	s6,s1,40000eb8 <k_printf+0x100>
    40000ecc:	2000006f          	j	400010cc <k_printf+0x314>
    40000ed0:	00000813          	li	a6,0
    40000ed4:	f81ff06f          	j	40000e54 <k_printf+0x9c>
    40000ed8:	fb843783          	ld	a5,-72(s0)
    40000edc:	00878713          	add	a4,a5,8
    40000ee0:	fae43c23          	sd	a4,-72(s0)
    40000ee4:	0007b503          	ld	a0,0(a5)
    40000ee8:	00000097          	auipc	ra,0x0
    40000eec:	91c080e7          	jalr	-1764(ra) # 40000804 <serial_print>
    40000ef0:	1dc0006f          	j	400010cc <k_printf+0x314>
    40000ef4:	fb843783          	ld	a5,-72(s0)
    40000ef8:	00878713          	add	a4,a5,8
    40000efc:	fae43c23          	sd	a4,-72(s0)
    40000f00:	0007c503          	lbu	a0,0(a5)
    40000f04:	00000097          	auipc	ra,0x0
    40000f08:	870080e7          	jalr	-1936(ra) # 40000774 <serial_print_char>
    40000f0c:	1c00006f          	j	400010cc <k_printf+0x314>
    40000f10:	00018797          	auipc	a5,0x18
    40000f14:	1c878793          	add	a5,a5,456 # 400190d8 <kernel_text_end+0x160d8>
    40000f18:	0007b703          	ld	a4,0(a5)
    40000f1c:	f2e43c23          	sd	a4,-200(s0)
    40000f20:	0087b703          	ld	a4,8(a5)
    40000f24:	f4e43023          	sd	a4,-192(s0)
    40000f28:	0107c783          	lbu	a5,16(a5)
    40000f2c:	f4f40423          	sb	a5,-184(s0)
    40000f30:	fb843783          	ld	a5,-72(s0)
    40000f34:	00878713          	add	a4,a5,8
    40000f38:	fae43c23          	sd	a4,-72(s0)
    40000f3c:	0007b783          	ld	a5,0(a5)
    40000f40:	1e078e63          	beqz	a5,4000113c <k_printf+0x384>
    40000f44:	f5040613          	add	a2,s0,-176
    40000f48:	fff00693          	li	a3,-1
    40000f4c:	00f00513          	li	a0,15
    40000f50:	00068593          	mv	a1,a3
    40000f54:	0016869b          	addw	a3,a3,1
    40000f58:	00f7f713          	and	a4,a5,15
    40000f5c:	fc070713          	add	a4,a4,-64
    40000f60:	00870733          	add	a4,a4,s0
    40000f64:	f7874703          	lbu	a4,-136(a4)
    40000f68:	00e60023          	sb	a4,0(a2)
    40000f6c:	00078713          	mv	a4,a5
    40000f70:	0047d793          	srl	a5,a5,0x4
    40000f74:	00160613          	add	a2,a2,1
    40000f78:	fce56ce3          	bltu	a0,a4,40000f50 <k_printf+0x198>
    40000f7c:	0025879b          	addw	a5,a1,2
    40000f80:	fc078793          	add	a5,a5,-64
    40000f84:	008787b3          	add	a5,a5,s0
    40000f88:	07800713          	li	a4,120
    40000f8c:	f8e78823          	sb	a4,-112(a5)
    40000f90:	0035859b          	addw	a1,a1,3
    40000f94:	fc058793          	add	a5,a1,-64
    40000f98:	008787b3          	add	a5,a5,s0
    40000f9c:	03000713          	li	a4,48
    40000fa0:	f8e78823          	sb	a4,-112(a5)
    40000fa4:	1205c463          	bltz	a1,400010cc <k_printf+0x314>
    40000fa8:	f5040793          	add	a5,s0,-176
    40000fac:	00d784b3          	add	s1,a5,a3
    40000fb0:	f4f40793          	add	a5,s0,-177
    40000fb4:	00d78b33          	add	s6,a5,a3
    40000fb8:	0026869b          	addw	a3,a3,2
    40000fbc:	02069693          	sll	a3,a3,0x20
    40000fc0:	0206d693          	srl	a3,a3,0x20
    40000fc4:	40db0b33          	sub	s6,s6,a3
    40000fc8:	0024c503          	lbu	a0,2(s1)
    40000fcc:	fffff097          	auipc	ra,0xfffff
    40000fd0:	7a8080e7          	jalr	1960(ra) # 40000774 <serial_print_char>
    40000fd4:	fff48493          	add	s1,s1,-1
    40000fd8:	ff6498e3          	bne	s1,s6,40000fc8 <k_printf+0x210>
    40000fdc:	0f00006f          	j	400010cc <k_printf+0x314>
    40000fe0:	00018797          	auipc	a5,0x18
    40000fe4:	0f878793          	add	a5,a5,248 # 400190d8 <kernel_text_end+0x160d8>
    40000fe8:	0007b703          	ld	a4,0(a5)
    40000fec:	f2e43c23          	sd	a4,-200(s0)
    40000ff0:	0087b703          	ld	a4,8(a5)
    40000ff4:	f4e43023          	sd	a4,-192(s0)
    40000ff8:	0107c783          	lbu	a5,16(a5)
    40000ffc:	f4f40423          	sb	a5,-184(s0)
    40001000:	fb843783          	ld	a5,-72(s0)
    40001004:	00878713          	add	a4,a5,8
    40001008:	fae43c23          	sd	a4,-72(s0)
    4000100c:	0007b783          	ld	a5,0(a5)
    40001010:	14078463          	beqz	a5,40001158 <k_printf+0x3a0>
    40001014:	f5040613          	add	a2,s0,-176
    40001018:	fff00693          	li	a3,-1
    4000101c:	00f00513          	li	a0,15
    40001020:	00068593          	mv	a1,a3
    40001024:	0016869b          	addw	a3,a3,1
    40001028:	00f7f713          	and	a4,a5,15
    4000102c:	fc070713          	add	a4,a4,-64
    40001030:	00870733          	add	a4,a4,s0
    40001034:	f7874703          	lbu	a4,-136(a4)
    40001038:	00e60023          	sb	a4,0(a2)
    4000103c:	00078713          	mv	a4,a5
    40001040:	0047d793          	srl	a5,a5,0x4
    40001044:	00160613          	add	a2,a2,1
    40001048:	fce56ce3          	bltu	a0,a4,40001020 <k_printf+0x268>
    4000104c:	0025879b          	addw	a5,a1,2
    40001050:	fc078793          	add	a5,a5,-64
    40001054:	008787b3          	add	a5,a5,s0
    40001058:	07800713          	li	a4,120
    4000105c:	f8e78823          	sb	a4,-112(a5)
    40001060:	0035859b          	addw	a1,a1,3
    40001064:	fc058793          	add	a5,a1,-64
    40001068:	008787b3          	add	a5,a5,s0
    4000106c:	03000713          	li	a4,48
    40001070:	f8e78823          	sb	a4,-112(a5)
    40001074:	0405cc63          	bltz	a1,400010cc <k_printf+0x314>
    40001078:	f5040793          	add	a5,s0,-176
    4000107c:	00d784b3          	add	s1,a5,a3
    40001080:	f4f40793          	add	a5,s0,-177
    40001084:	00d78b33          	add	s6,a5,a3
    40001088:	0026869b          	addw	a3,a3,2
    4000108c:	02069693          	sll	a3,a3,0x20
    40001090:	0206d693          	srl	a3,a3,0x20
    40001094:	40db0b33          	sub	s6,s6,a3
    40001098:	0024c503          	lbu	a0,2(s1)
    4000109c:	fffff097          	auipc	ra,0xfffff
    400010a0:	6d8080e7          	jalr	1752(ra) # 40000774 <serial_print_char>
    400010a4:	fff48493          	add	s1,s1,-1
    400010a8:	ff6498e3          	bne	s1,s6,40001098 <k_printf+0x2e0>
    400010ac:	0200006f          	j	400010cc <k_printf+0x314>
    400010b0:	02500513          	li	a0,37
    400010b4:	fffff097          	auipc	ra,0xfffff
    400010b8:	6c0080e7          	jalr	1728(ra) # 40000774 <serial_print_char>
    400010bc:	0100006f          	j	400010cc <k_printf+0x314>
    400010c0:	fffff097          	auipc	ra,0xfffff
    400010c4:	6b4080e7          	jalr	1716(ra) # 40000774 <serial_print_char>
    400010c8:	00048913          	mv	s2,s1
    400010cc:	00190493          	add	s1,s2,1
    400010d0:	00194503          	lbu	a0,1(s2)
    400010d4:	04050063          	beqz	a0,40001114 <k_printf+0x35c>
    400010d8:	ff3514e3          	bne	a0,s3,400010c0 <k_printf+0x308>
    400010dc:	00148913          	add	s2,s1,1
    400010e0:	0014c783          	lbu	a5,1(s1)
    400010e4:	fd3786e3          	beq	a5,s3,400010b0 <k_printf+0x2f8>
    400010e8:	f9d7871b          	addw	a4,a5,-99
    400010ec:	0ff77713          	zext.b	a4,a4
    400010f0:	fcea6ee3          	bltu	s4,a4,400010cc <k_printf+0x314>
    400010f4:	f9d7879b          	addw	a5,a5,-99
    400010f8:	0ff7f713          	zext.b	a4,a5
    400010fc:	fcea68e3          	bltu	s4,a4,400010cc <k_printf+0x314>
    40001100:	00271793          	sll	a5,a4,0x2
    40001104:	015787b3          	add	a5,a5,s5
    40001108:	0007a783          	lw	a5,0(a5)
    4000110c:	015787b3          	add	a5,a5,s5
    40001110:	00078067          	jr	a5
    40001114:	0b013903          	ld	s2,176(sp)
    40001118:	0a813983          	ld	s3,168(sp)
    4000111c:	0a013a03          	ld	s4,160(sp)
    40001120:	09813a83          	ld	s5,152(sp)
    40001124:	09013b03          	ld	s6,144(sp)
    40001128:	0c813083          	ld	ra,200(sp)
    4000112c:	0c013403          	ld	s0,192(sp)
    40001130:	0b813483          	ld	s1,184(sp)
    40001134:	11010113          	add	sp,sp,272
    40001138:	00008067          	ret
    4000113c:	03000793          	li	a5,48
    40001140:	f4f40823          	sb	a5,-176(s0)
    40001144:	07800713          	li	a4,120
    40001148:	f4e408a3          	sb	a4,-175(s0)
    4000114c:	f4f40923          	sb	a5,-174(s0)
    40001150:	00000693          	li	a3,0
    40001154:	e55ff06f          	j	40000fa8 <k_printf+0x1f0>
    40001158:	03000793          	li	a5,48
    4000115c:	f4f40823          	sb	a5,-176(s0)
    40001160:	07800713          	li	a4,120
    40001164:	f4e408a3          	sb	a4,-175(s0)
    40001168:	f4f40923          	sb	a5,-174(s0)
    4000116c:	00000693          	li	a3,0
    40001170:	f09ff06f          	j	40001078 <k_printf+0x2c0>

0000000040001174 <k_sprintf>:
    40001174:	f0010113          	add	sp,sp,-256
    40001178:	0c113423          	sd	ra,200(sp)
    4000117c:	0c813023          	sd	s0,192(sp)
    40001180:	0a913c23          	sd	s1,184(sp)
    40001184:	0d010413          	add	s0,sp,208
    40001188:	00050493          	mv	s1,a0
    4000118c:	00c43023          	sd	a2,0(s0)
    40001190:	00d43423          	sd	a3,8(s0)
    40001194:	00e43823          	sd	a4,16(s0)
    40001198:	00f43c23          	sd	a5,24(s0)
    4000119c:	03043023          	sd	a6,32(s0)
    400011a0:	03143423          	sd	a7,40(s0)
    400011a4:	fa843c23          	sd	s0,-72(s0)
    400011a8:	0005c783          	lbu	a5,0(a1)
    400011ac:	32078c63          	beqz	a5,400014e4 <k_sprintf+0x370>
    400011b0:	0b213823          	sd	s2,176(sp)
    400011b4:	0b313423          	sd	s3,168(sp)
    400011b8:	0b413023          	sd	s4,160(sp)
    400011bc:	09513c23          	sd	s5,152(sp)
    400011c0:	02500993          	li	s3,37
    400011c4:	01500a13          	li	s4,21
    400011c8:	00018a97          	auipc	s5,0x18
    400011cc:	374a8a93          	add	s5,s5,884 # 4001953c <kernel_text_end+0x1653c>
    400011d0:	0f00006f          	j	400012c0 <k_sprintf+0x14c>
    400011d4:	00158913          	add	s2,a1,1
    400011d8:	0015c783          	lbu	a5,1(a1)
    400011dc:	2f378463          	beq	a5,s3,400014c4 <k_sprintf+0x350>
    400011e0:	f9d7871b          	addw	a4,a5,-99
    400011e4:	0ff77713          	zext.b	a4,a4
    400011e8:	0cea6663          	bltu	s4,a4,400012b4 <k_sprintf+0x140>
    400011ec:	f9d7879b          	addw	a5,a5,-99
    400011f0:	0ff7f713          	zext.b	a4,a5
    400011f4:	0cea6063          	bltu	s4,a4,400012b4 <k_sprintf+0x140>
    400011f8:	00271793          	sll	a5,a4,0x2
    400011fc:	015787b3          	add	a5,a5,s5
    40001200:	0007a783          	lw	a5,0(a5)
    40001204:	015787b3          	add	a5,a5,s5
    40001208:	00078067          	jr	a5
    4000120c:	fb843783          	ld	a5,-72(s0)
    40001210:	00878713          	add	a4,a5,8
    40001214:	fae43c23          	sd	a4,-72(s0)
    40001218:	0007a703          	lw	a4,0(a5)
    4000121c:	00074c63          	bltz	a4,40001234 <k_sprintf+0xc0>
    40001220:	0a071a63          	bnez	a4,400012d4 <k_sprintf+0x160>
    40001224:	03000793          	li	a5,48
    40001228:	f4f40823          	sb	a5,-176(s0)
    4000122c:	00070793          	mv	a5,a4
    40001230:	0500006f          	j	40001280 <k_sprintf+0x10c>
    40001234:	40e0073b          	negw	a4,a4
    40001238:	00100813          	li	a6,1
    4000123c:	f5040613          	add	a2,s0,-176
    40001240:	fff00793          	li	a5,-1
    40001244:	00a00593          	li	a1,10
    40001248:	00078513          	mv	a0,a5
    4000124c:	0017879b          	addw	a5,a5,1
    40001250:	02b766bb          	remw	a3,a4,a1
    40001254:	0306869b          	addw	a3,a3,48
    40001258:	00d60023          	sb	a3,0(a2)
    4000125c:	02b7473b          	divw	a4,a4,a1
    40001260:	00160613          	add	a2,a2,1
    40001264:	fe0712e3          	bnez	a4,40001248 <k_sprintf+0xd4>
    40001268:	00080c63          	beqz	a6,40001280 <k_sprintf+0x10c>
    4000126c:	0025079b          	addw	a5,a0,2
    40001270:	fc078713          	add	a4,a5,-64
    40001274:	00870733          	add	a4,a4,s0
    40001278:	02d00693          	li	a3,45
    4000127c:	f8d70823          	sb	a3,-112(a4)
    40001280:	0407ce63          	bltz	a5,400012dc <k_sprintf+0x168>
    40001284:	f5040713          	add	a4,s0,-176
    40001288:	00f70733          	add	a4,a4,a5
    4000128c:	0017879b          	addw	a5,a5,1
    40001290:	02079793          	sll	a5,a5,0x20
    40001294:	0207d793          	srl	a5,a5,0x20
    40001298:	00f487b3          	add	a5,s1,a5
    4000129c:	00148493          	add	s1,s1,1
    400012a0:	00074683          	lbu	a3,0(a4)
    400012a4:	fed48fa3          	sb	a3,-1(s1)
    400012a8:	fff70713          	add	a4,a4,-1
    400012ac:	fe9798e3          	bne	a5,s1,4000129c <k_sprintf+0x128>
    400012b0:	00078493          	mv	s1,a5
    400012b4:	00190593          	add	a1,s2,1
    400012b8:	00194783          	lbu	a5,1(s2)
    400012bc:	20078c63          	beqz	a5,400014d4 <k_sprintf+0x360>
    400012c0:	f1378ae3          	beq	a5,s3,400011d4 <k_sprintf+0x60>
    400012c4:	00f48023          	sb	a5,0(s1)
    400012c8:	00058913          	mv	s2,a1
    400012cc:	00148493          	add	s1,s1,1
    400012d0:	fe5ff06f          	j	400012b4 <k_sprintf+0x140>
    400012d4:	00000813          	li	a6,0
    400012d8:	f65ff06f          	j	4000123c <k_sprintf+0xc8>
    400012dc:	00048793          	mv	a5,s1
    400012e0:	fd1ff06f          	j	400012b0 <k_sprintf+0x13c>
    400012e4:	fb843783          	ld	a5,-72(s0)
    400012e8:	00878713          	add	a4,a5,8
    400012ec:	fae43c23          	sd	a4,-72(s0)
    400012f0:	0007b503          	ld	a0,0(a5)
    400012f4:	fffff097          	auipc	ra,0xfffff
    400012f8:	510080e7          	jalr	1296(ra) # 40000804 <serial_print>
    400012fc:	fb9ff06f          	j	400012b4 <k_sprintf+0x140>
    40001300:	fb843783          	ld	a5,-72(s0)
    40001304:	00878713          	add	a4,a5,8
    40001308:	fae43c23          	sd	a4,-72(s0)
    4000130c:	0007c503          	lbu	a0,0(a5)
    40001310:	fffff097          	auipc	ra,0xfffff
    40001314:	464080e7          	jalr	1124(ra) # 40000774 <serial_print_char>
    40001318:	f9dff06f          	j	400012b4 <k_sprintf+0x140>
    4000131c:	00018797          	auipc	a5,0x18
    40001320:	dbc78793          	add	a5,a5,-580 # 400190d8 <kernel_text_end+0x160d8>
    40001324:	0007b703          	ld	a4,0(a5)
    40001328:	f2e43c23          	sd	a4,-200(s0)
    4000132c:	0087b703          	ld	a4,8(a5)
    40001330:	f4e43023          	sd	a4,-192(s0)
    40001334:	0107c783          	lbu	a5,16(a5)
    40001338:	f4f40423          	sb	a5,-184(s0)
    4000133c:	fb843783          	ld	a5,-72(s0)
    40001340:	00878713          	add	a4,a5,8
    40001344:	fae43c23          	sd	a4,-72(s0)
    40001348:	0007b703          	ld	a4,0(a5)
    4000134c:	1a070863          	beqz	a4,400014fc <k_sprintf+0x388>
    40001350:	f5040613          	add	a2,s0,-176
    40001354:	fff00793          	li	a5,-1
    40001358:	00f00513          	li	a0,15
    4000135c:	00078593          	mv	a1,a5
    40001360:	0017879b          	addw	a5,a5,1
    40001364:	00f77693          	and	a3,a4,15
    40001368:	fc068693          	add	a3,a3,-64
    4000136c:	008686b3          	add	a3,a3,s0
    40001370:	f786c683          	lbu	a3,-136(a3)
    40001374:	00d60023          	sb	a3,0(a2)
    40001378:	00070693          	mv	a3,a4
    4000137c:	00475713          	srl	a4,a4,0x4
    40001380:	00160613          	add	a2,a2,1
    40001384:	fcd56ce3          	bltu	a0,a3,4000135c <k_sprintf+0x1e8>
    40001388:	0025871b          	addw	a4,a1,2
    4000138c:	fc070713          	add	a4,a4,-64
    40001390:	00870733          	add	a4,a4,s0
    40001394:	07800693          	li	a3,120
    40001398:	f8d70823          	sb	a3,-112(a4)
    4000139c:	0035859b          	addw	a1,a1,3
    400013a0:	fc058713          	add	a4,a1,-64
    400013a4:	00870733          	add	a4,a4,s0
    400013a8:	03000693          	li	a3,48
    400013ac:	f8d70823          	sb	a3,-112(a4)
    400013b0:	0205cc63          	bltz	a1,400013e8 <k_sprintf+0x274>
    400013b4:	f5040713          	add	a4,s0,-176
    400013b8:	00f70733          	add	a4,a4,a5
    400013bc:	0037879b          	addw	a5,a5,3
    400013c0:	02079793          	sll	a5,a5,0x20
    400013c4:	0207d793          	srl	a5,a5,0x20
    400013c8:	00f487b3          	add	a5,s1,a5
    400013cc:	00148493          	add	s1,s1,1
    400013d0:	00274683          	lbu	a3,2(a4)
    400013d4:	fed48fa3          	sb	a3,-1(s1)
    400013d8:	fff70713          	add	a4,a4,-1
    400013dc:	fef498e3          	bne	s1,a5,400013cc <k_sprintf+0x258>
    400013e0:	00078493          	mv	s1,a5
    400013e4:	ed1ff06f          	j	400012b4 <k_sprintf+0x140>
    400013e8:	00048793          	mv	a5,s1
    400013ec:	ff5ff06f          	j	400013e0 <k_sprintf+0x26c>
    400013f0:	00018797          	auipc	a5,0x18
    400013f4:	ce878793          	add	a5,a5,-792 # 400190d8 <kernel_text_end+0x160d8>
    400013f8:	0007b703          	ld	a4,0(a5)
    400013fc:	f2e43c23          	sd	a4,-200(s0)
    40001400:	0087b703          	ld	a4,8(a5)
    40001404:	f4e43023          	sd	a4,-192(s0)
    40001408:	0107c783          	lbu	a5,16(a5)
    4000140c:	f4f40423          	sb	a5,-184(s0)
    40001410:	fb843783          	ld	a5,-72(s0)
    40001414:	00878713          	add	a4,a5,8
    40001418:	fae43c23          	sd	a4,-72(s0)
    4000141c:	0007b703          	ld	a4,0(a5)
    40001420:	0e070c63          	beqz	a4,40001518 <k_sprintf+0x3a4>
    40001424:	f5040613          	add	a2,s0,-176
    40001428:	fff00793          	li	a5,-1
    4000142c:	00f00513          	li	a0,15
    40001430:	00078593          	mv	a1,a5
    40001434:	0017879b          	addw	a5,a5,1
    40001438:	00f77693          	and	a3,a4,15
    4000143c:	fc068693          	add	a3,a3,-64
    40001440:	008686b3          	add	a3,a3,s0
    40001444:	f786c683          	lbu	a3,-136(a3)
    40001448:	00d60023          	sb	a3,0(a2)
    4000144c:	00070693          	mv	a3,a4
    40001450:	00475713          	srl	a4,a4,0x4
    40001454:	00160613          	add	a2,a2,1
    40001458:	fcd56ce3          	bltu	a0,a3,40001430 <k_sprintf+0x2bc>
    4000145c:	0025871b          	addw	a4,a1,2
    40001460:	fc070713          	add	a4,a4,-64
    40001464:	00870733          	add	a4,a4,s0
    40001468:	07800693          	li	a3,120
    4000146c:	f8d70823          	sb	a3,-112(a4)
    40001470:	0035859b          	addw	a1,a1,3
    40001474:	fc058713          	add	a4,a1,-64
    40001478:	00870733          	add	a4,a4,s0
    4000147c:	03000693          	li	a3,48
    40001480:	f8d70823          	sb	a3,-112(a4)
    40001484:	0205cc63          	bltz	a1,400014bc <k_sprintf+0x348>
    40001488:	f5040713          	add	a4,s0,-176
    4000148c:	00f70733          	add	a4,a4,a5
    40001490:	0037879b          	addw	a5,a5,3
    40001494:	02079793          	sll	a5,a5,0x20
    40001498:	0207d793          	srl	a5,a5,0x20
    4000149c:	00f487b3          	add	a5,s1,a5
    400014a0:	00148493          	add	s1,s1,1
    400014a4:	00274683          	lbu	a3,2(a4)
    400014a8:	fed48fa3          	sb	a3,-1(s1)
    400014ac:	fff70713          	add	a4,a4,-1
    400014b0:	fef498e3          	bne	s1,a5,400014a0 <k_sprintf+0x32c>
    400014b4:	00078493          	mv	s1,a5
    400014b8:	dfdff06f          	j	400012b4 <k_sprintf+0x140>
    400014bc:	00048793          	mv	a5,s1
    400014c0:	ff5ff06f          	j	400014b4 <k_sprintf+0x340>
    400014c4:	02500793          	li	a5,37
    400014c8:	00f48023          	sb	a5,0(s1)
    400014cc:	00148493          	add	s1,s1,1
    400014d0:	de5ff06f          	j	400012b4 <k_sprintf+0x140>
    400014d4:	0b013903          	ld	s2,176(sp)
    400014d8:	0a813983          	ld	s3,168(sp)
    400014dc:	0a013a03          	ld	s4,160(sp)
    400014e0:	09813a83          	ld	s5,152(sp)
    400014e4:	00048023          	sb	zero,0(s1)
    400014e8:	0c813083          	ld	ra,200(sp)
    400014ec:	0c013403          	ld	s0,192(sp)
    400014f0:	0b813483          	ld	s1,184(sp)
    400014f4:	10010113          	add	sp,sp,256
    400014f8:	00008067          	ret
    400014fc:	03000793          	li	a5,48
    40001500:	f4f40823          	sb	a5,-176(s0)
    40001504:	07800713          	li	a4,120
    40001508:	f4e408a3          	sb	a4,-175(s0)
    4000150c:	f4f40923          	sb	a5,-174(s0)
    40001510:	00000793          	li	a5,0
    40001514:	ea1ff06f          	j	400013b4 <k_sprintf+0x240>
    40001518:	03000793          	li	a5,48
    4000151c:	f4f40823          	sb	a5,-176(s0)
    40001520:	07800713          	li	a4,120
    40001524:	f4e408a3          	sb	a4,-175(s0)
    40001528:	f4f40923          	sb	a5,-174(s0)
    4000152c:	00000793          	li	a5,0
    40001530:	f59ff06f          	j	40001488 <k_sprintf+0x314>

0000000040001534 <k_getc>:
    40001534:	fe010113          	add	sp,sp,-32
    40001538:	00113c23          	sd	ra,24(sp)
    4000153c:	00813823          	sd	s0,16(sp)
    40001540:	00913423          	sd	s1,8(sp)
    40001544:	02010413          	add	s0,sp,32
    40001548:	00050493          	mv	s1,a0
    4000154c:	fffff097          	auipc	ra,0xfffff
    40001550:	268080e7          	jalr	616(ra) # 400007b4 <serial_receive_data>
    40001554:	02054063          	bltz	a0,40001574 <k_getc+0x40>
    40001558:	00a48023          	sb	a0,0(s1)
    4000155c:	00000513          	li	a0,0
    40001560:	01813083          	ld	ra,24(sp)
    40001564:	01013403          	ld	s0,16(sp)
    40001568:	00813483          	ld	s1,8(sp)
    4000156c:	02010113          	add	sp,sp,32
    40001570:	00008067          	ret
    40001574:	fff00513          	li	a0,-1
    40001578:	fe9ff06f          	j	40001560 <k_getc+0x2c>

000000004000157c <k_putc>:
    4000157c:	fe010113          	add	sp,sp,-32
    40001580:	00113c23          	sd	ra,24(sp)
    40001584:	00813823          	sd	s0,16(sp)
    40001588:	00913423          	sd	s1,8(sp)
    4000158c:	02010413          	add	s0,sp,32
    40001590:	00050493          	mv	s1,a0
    40001594:	00d00793          	li	a5,13
    40001598:	02f50663          	beq	a0,a5,400015c4 <k_putc+0x48>
    4000159c:	00048593          	mv	a1,s1
    400015a0:	00018517          	auipc	a0,0x18
    400015a4:	b5850513          	add	a0,a0,-1192 # 400190f8 <kernel_text_end+0x160f8>
    400015a8:	00000097          	auipc	ra,0x0
    400015ac:	810080e7          	jalr	-2032(ra) # 40000db8 <k_printf>
    400015b0:	01813083          	ld	ra,24(sp)
    400015b4:	01013403          	ld	s0,16(sp)
    400015b8:	00813483          	ld	s1,8(sp)
    400015bc:	02010113          	add	sp,sp,32
    400015c0:	00008067          	ret
    400015c4:	00018517          	auipc	a0,0x18
    400015c8:	b2c50513          	add	a0,a0,-1236 # 400190f0 <kernel_text_end+0x160f0>
    400015cc:	fffff097          	auipc	ra,0xfffff
    400015d0:	7ec080e7          	jalr	2028(ra) # 40000db8 <k_printf>
    400015d4:	fc9ff06f          	j	4000159c <k_putc+0x20>

00000000400015d8 <k_panic>:
    400015d8:	ff010113          	add	sp,sp,-16
    400015dc:	00113423          	sd	ra,8(sp)
    400015e0:	00813023          	sd	s0,0(sp)
    400015e4:	01010413          	add	s0,sp,16
    400015e8:	00060693          	mv	a3,a2
    400015ec:	00058613          	mv	a2,a1
    400015f0:	00050593          	mv	a1,a0
    400015f4:	00018517          	auipc	a0,0x18
    400015f8:	b0c50513          	add	a0,a0,-1268 # 40019100 <kernel_text_end+0x16100>
    400015fc:	fffff097          	auipc	ra,0xfffff
    40001600:	7bc080e7          	jalr	1980(ra) # 40000db8 <k_printf>
    40001604:	00018517          	auipc	a0,0x18
    40001608:	b1450513          	add	a0,a0,-1260 # 40019118 <kernel_text_end+0x16118>
    4000160c:	fffff097          	auipc	ra,0xfffff
    40001610:	7ac080e7          	jalr	1964(ra) # 40000db8 <k_printf>
    40001614:	0000006f          	j	40001614 <k_panic+0x3c>

0000000040001618 <k_vm_map>:
    40001618:	ff010113          	add	sp,sp,-16
    4000161c:	00113423          	sd	ra,8(sp)
    40001620:	00813023          	sd	s0,0(sp)
    40001624:	01010413          	add	s0,sp,16
    40001628:	fffff097          	auipc	ra,0xfffff
    4000162c:	b0c080e7          	jalr	-1268(ra) # 40000134 <vm_map>
    40001630:	00813083          	ld	ra,8(sp)
    40001634:	00013403          	ld	s0,0(sp)
    40001638:	01010113          	add	sp,sp,16
    4000163c:	00008067          	ret

0000000040001640 <k_pagetable_init>:
    40001640:	fe010113          	add	sp,sp,-32
    40001644:	00113c23          	sd	ra,24(sp)
    40001648:	00813823          	sd	s0,16(sp)
    4000164c:	00913423          	sd	s1,8(sp)
    40001650:	01213023          	sd	s2,0(sp)
    40001654:	02010413          	add	s0,sp,32
    40001658:	00000097          	auipc	ra,0x0
    4000165c:	270080e7          	jalr	624(ra) # 400018c8 <k_alloc_single_page>
    40001660:	00019797          	auipc	a5,0x19
    40001664:	c6a7b423          	sd	a0,-920(a5) # 4001a2c8 <kernel_pagetable>
    40001668:	fffff917          	auipc	s2,0xfffff
    4000166c:	99890913          	add	s2,s2,-1640 # 40000000 <_start>
    40001670:	fff00713          	li	a4,-1
    40001674:	03f71713          	sll	a4,a4,0x3f
    40001678:	0c670713          	add	a4,a4,198
    4000167c:	00090693          	mv	a3,s2
    40001680:	00000613          	li	a2,0
    40001684:	00000593          	li	a1,0
    40001688:	00019517          	auipc	a0,0x19
    4000168c:	c4053503          	ld	a0,-960(a0) # 4001a2c8 <kernel_pagetable>
    40001690:	00000097          	auipc	ra,0x0
    40001694:	f88080e7          	jalr	-120(ra) # 40001618 <k_vm_map>
    40001698:	00002497          	auipc	s1,0x2
    4000169c:	96848493          	add	s1,s1,-1688 # 40003000 <kernel_text_end>
    400016a0:	00300713          	li	a4,3
    400016a4:	03d71713          	sll	a4,a4,0x3d
    400016a8:	04a70713          	add	a4,a4,74
    400016ac:	412486b3          	sub	a3,s1,s2
    400016b0:	00090613          	mv	a2,s2
    400016b4:	00090593          	mv	a1,s2
    400016b8:	00019517          	auipc	a0,0x19
    400016bc:	c1053503          	ld	a0,-1008(a0) # 4001a2c8 <kernel_pagetable>
    400016c0:	00000097          	auipc	ra,0x0
    400016c4:	f58080e7          	jalr	-168(ra) # 40001618 <k_vm_map>
    400016c8:	00300713          	li	a4,3
    400016cc:	03d71713          	sll	a4,a4,0x3d
    400016d0:	0c670713          	add	a4,a4,198
    400016d4:	3ffff697          	auipc	a3,0x3ffff
    400016d8:	92b68693          	add	a3,a3,-1749 # 7fffffff <kernel_end+0x3fedefff>
    400016dc:	409686b3          	sub	a3,a3,s1
    400016e0:	00048613          	mv	a2,s1
    400016e4:	00048593          	mv	a1,s1
    400016e8:	00019517          	auipc	a0,0x19
    400016ec:	be053503          	ld	a0,-1056(a0) # 4001a2c8 <kernel_pagetable>
    400016f0:	00000097          	auipc	ra,0x0
    400016f4:	f28080e7          	jalr	-216(ra) # 40001618 <k_vm_map>
    400016f8:	01813083          	ld	ra,24(sp)
    400016fc:	01013403          	ld	s0,16(sp)
    40001700:	00813483          	ld	s1,8(sp)
    40001704:	00013903          	ld	s2,0(sp)
    40001708:	02010113          	add	sp,sp,32
    4000170c:	00008067          	ret

0000000040001710 <k_vm_enable>:
    40001710:	ff010113          	add	sp,sp,-16
    40001714:	00113423          	sd	ra,8(sp)
    40001718:	00813023          	sd	s0,0(sp)
    4000171c:	01010413          	add	s0,sp,16
    40001720:	00019517          	auipc	a0,0x19
    40001724:	ba853503          	ld	a0,-1112(a0) # 4001a2c8 <kernel_pagetable>
    40001728:	fffff097          	auipc	ra,0xfffff
    4000172c:	b98080e7          	jalr	-1128(ra) # 400002c0 <vm_enable>
    40001730:	00813083          	ld	ra,8(sp)
    40001734:	00013403          	ld	s0,0(sp)
    40001738:	01010113          	add	sp,sp,16
    4000173c:	00008067          	ret

0000000040001740 <k_free_single_page>:
    40001740:	fe010113          	add	sp,sp,-32
    40001744:	00113c23          	sd	ra,24(sp)
    40001748:	00813823          	sd	s0,16(sp)
    4000174c:	00913423          	sd	s1,8(sp)
    40001750:	01213023          	sd	s2,0(sp)
    40001754:	02010413          	add	s0,sp,32
    40001758:	00050493          	mv	s1,a0
    4000175c:	03451793          	sll	a5,a0,0x34
    40001760:	00079e63          	bnez	a5,4000177c <k_free_single_page+0x3c>
    40001764:	00120797          	auipc	a5,0x120
    40001768:	89c78793          	add	a5,a5,-1892 # 40121000 <kernel_end>
    4000176c:	00f56863          	bltu	a0,a5,4000177c <k_free_single_page+0x3c>
    40001770:	3ffff797          	auipc	a5,0x3ffff
    40001774:	88f78793          	add	a5,a5,-1905 # 7fffffff <kernel_end+0x3fedefff>
    40001778:	02a7f063          	bgeu	a5,a0,40001798 <k_free_single_page+0x58>
    4000177c:	00018617          	auipc	a2,0x18
    40001780:	9b460613          	add	a2,a2,-1612 # 40019130 <kernel_text_end+0x16130>
    40001784:	01900593          	li	a1,25
    40001788:	00018517          	auipc	a0,0x18
    4000178c:	9d850513          	add	a0,a0,-1576 # 40019160 <kernel_text_end+0x16160>
    40001790:	00000097          	auipc	ra,0x0
    40001794:	e48080e7          	jalr	-440(ra) # 400015d8 <k_panic>
    40001798:	00001637          	lui	a2,0x1
    4000179c:	0ff00593          	li	a1,255
    400017a0:	00048513          	mv	a0,s1
    400017a4:	00000097          	auipc	ra,0x0
    400017a8:	1cc080e7          	jalr	460(ra) # 40001970 <k_memset>
    400017ac:	0001d917          	auipc	s2,0x1d
    400017b0:	4c490913          	add	s2,s2,1220 # 4001ec70 <mem_paging_spinlock>
    400017b4:	00090513          	mv	a0,s2
    400017b8:	fffff097          	auipc	ra,0xfffff
    400017bc:	538080e7          	jalr	1336(ra) # 40000cf0 <k_spinlock_lock>
    400017c0:	00019797          	auipc	a5,0x19
    400017c4:	b1078793          	add	a5,a5,-1264 # 4001a2d0 <mem_page_list>
    400017c8:	0007b703          	ld	a4,0(a5)
    400017cc:	00e4b023          	sd	a4,0(s1)
    400017d0:	0097b023          	sd	s1,0(a5)
    400017d4:	00090513          	mv	a0,s2
    400017d8:	fffff097          	auipc	ra,0xfffff
    400017dc:	540080e7          	jalr	1344(ra) # 40000d18 <k_spinlock_unlock>
    400017e0:	01813083          	ld	ra,24(sp)
    400017e4:	01013403          	ld	s0,16(sp)
    400017e8:	00813483          	ld	s1,8(sp)
    400017ec:	00013903          	ld	s2,0(sp)
    400017f0:	02010113          	add	sp,sp,32
    400017f4:	00008067          	ret

00000000400017f8 <k_free_pages>:
    400017f8:	fd010113          	add	sp,sp,-48
    400017fc:	02113423          	sd	ra,40(sp)
    40001800:	02813023          	sd	s0,32(sp)
    40001804:	00913c23          	sd	s1,24(sp)
    40001808:	03010413          	add	s0,sp,48
    4000180c:	000017b7          	lui	a5,0x1
    40001810:	fff78793          	add	a5,a5,-1 # fff <_start-0x3ffff001>
    40001814:	00f504b3          	add	s1,a0,a5
    40001818:	fffff7b7          	lui	a5,0xfffff
    4000181c:	00f4f4b3          	and	s1,s1,a5
    40001820:	000087b7          	lui	a5,0x8
    40001824:	00f484b3          	add	s1,s1,a5
    40001828:	0295ee63          	bltu	a1,s1,40001864 <k_free_pages+0x6c>
    4000182c:	01213823          	sd	s2,16(sp)
    40001830:	01313423          	sd	s3,8(sp)
    40001834:	01413023          	sd	s4,0(sp)
    40001838:	00058913          	mv	s2,a1
    4000183c:	ffff8a37          	lui	s4,0xffff8
    40001840:	000089b7          	lui	s3,0x8
    40001844:	01448533          	add	a0,s1,s4
    40001848:	00000097          	auipc	ra,0x0
    4000184c:	ef8080e7          	jalr	-264(ra) # 40001740 <k_free_single_page>
    40001850:	013484b3          	add	s1,s1,s3
    40001854:	fe9978e3          	bgeu	s2,s1,40001844 <k_free_pages+0x4c>
    40001858:	01013903          	ld	s2,16(sp)
    4000185c:	00813983          	ld	s3,8(sp)
    40001860:	00013a03          	ld	s4,0(sp)
    40001864:	02813083          	ld	ra,40(sp)
    40001868:	02013403          	ld	s0,32(sp)
    4000186c:	01813483          	ld	s1,24(sp)
    40001870:	03010113          	add	sp,sp,48
    40001874:	00008067          	ret

0000000040001878 <k_mem_paging_init>:
    40001878:	ff010113          	add	sp,sp,-16
    4000187c:	00113423          	sd	ra,8(sp)
    40001880:	00813023          	sd	s0,0(sp)
    40001884:	01010413          	add	s0,sp,16
    40001888:	00018597          	auipc	a1,0x18
    4000188c:	8f058593          	add	a1,a1,-1808 # 40019178 <kernel_text_end+0x16178>
    40001890:	0001d517          	auipc	a0,0x1d
    40001894:	3e050513          	add	a0,a0,992 # 4001ec70 <mem_paging_spinlock>
    40001898:	fffff097          	auipc	ra,0xfffff
    4000189c:	430080e7          	jalr	1072(ra) # 40000cc8 <k_spinlock_init>
    400018a0:	3fffe597          	auipc	a1,0x3fffe
    400018a4:	75f58593          	add	a1,a1,1887 # 7fffffff <kernel_end+0x3fedefff>
    400018a8:	0011f517          	auipc	a0,0x11f
    400018ac:	75850513          	add	a0,a0,1880 # 40121000 <kernel_end>
    400018b0:	00000097          	auipc	ra,0x0
    400018b4:	f48080e7          	jalr	-184(ra) # 400017f8 <k_free_pages>
    400018b8:	00813083          	ld	ra,8(sp)
    400018bc:	00013403          	ld	s0,0(sp)
    400018c0:	01010113          	add	sp,sp,16
    400018c4:	00008067          	ret

00000000400018c8 <k_alloc_single_page>:
    400018c8:	fe010113          	add	sp,sp,-32
    400018cc:	00113c23          	sd	ra,24(sp)
    400018d0:	00813823          	sd	s0,16(sp)
    400018d4:	00913423          	sd	s1,8(sp)
    400018d8:	01213023          	sd	s2,0(sp)
    400018dc:	02010413          	add	s0,sp,32
    400018e0:	00019797          	auipc	a5,0x19
    400018e4:	9f07b783          	ld	a5,-1552(a5) # 4001a2d0 <mem_page_list>
    400018e8:	06078463          	beqz	a5,40001950 <k_alloc_single_page+0x88>
    400018ec:	0001d917          	auipc	s2,0x1d
    400018f0:	38490913          	add	s2,s2,900 # 4001ec70 <mem_paging_spinlock>
    400018f4:	00090513          	mv	a0,s2
    400018f8:	fffff097          	auipc	ra,0xfffff
    400018fc:	3f8080e7          	jalr	1016(ra) # 40000cf0 <k_spinlock_lock>
    40001900:	00019797          	auipc	a5,0x19
    40001904:	9d078793          	add	a5,a5,-1584 # 4001a2d0 <mem_page_list>
    40001908:	0007b483          	ld	s1,0(a5)
    4000190c:	0004b703          	ld	a4,0(s1)
    40001910:	00e7b023          	sd	a4,0(a5)
    40001914:	00090513          	mv	a0,s2
    40001918:	fffff097          	auipc	ra,0xfffff
    4000191c:	400080e7          	jalr	1024(ra) # 40000d18 <k_spinlock_unlock>
    40001920:	00001637          	lui	a2,0x1
    40001924:	00000593          	li	a1,0
    40001928:	00048513          	mv	a0,s1
    4000192c:	00000097          	auipc	ra,0x0
    40001930:	044080e7          	jalr	68(ra) # 40001970 <k_memset>
    40001934:	00048513          	mv	a0,s1
    40001938:	01813083          	ld	ra,24(sp)
    4000193c:	01013403          	ld	s0,16(sp)
    40001940:	00813483          	ld	s1,8(sp)
    40001944:	00013903          	ld	s2,0(sp)
    40001948:	02010113          	add	sp,sp,32
    4000194c:	00008067          	ret
    40001950:	00018617          	auipc	a2,0x18
    40001954:	83860613          	add	a2,a2,-1992 # 40019188 <kernel_text_end+0x16188>
    40001958:	02800593          	li	a1,40
    4000195c:	00018517          	auipc	a0,0x18
    40001960:	80450513          	add	a0,a0,-2044 # 40019160 <kernel_text_end+0x16160>
    40001964:	00000097          	auipc	ra,0x0
    40001968:	c74080e7          	jalr	-908(ra) # 400015d8 <k_panic>
    4000196c:	f81ff06f          	j	400018ec <k_alloc_single_page+0x24>

0000000040001970 <k_memset>:
    40001970:	ff010113          	add	sp,sp,-16
    40001974:	00813423          	sd	s0,8(sp)
    40001978:	01010413          	add	s0,sp,16
    4000197c:	00c05c63          	blez	a2,40001994 <k_memset+0x24>
    40001980:	00050793          	mv	a5,a0
    40001984:	00c50533          	add	a0,a0,a2
    40001988:	00b78023          	sb	a1,0(a5)
    4000198c:	00178793          	add	a5,a5,1
    40001990:	fea79ce3          	bne	a5,a0,40001988 <k_memset+0x18>
    40001994:	00813403          	ld	s0,8(sp)
    40001998:	01010113          	add	sp,sp,16
    4000199c:	00008067          	ret

00000000400019a0 <k_interrupt_init>:
    400019a0:	ff010113          	add	sp,sp,-16
    400019a4:	00113423          	sd	ra,8(sp)
    400019a8:	00813023          	sd	s0,0(sp)
    400019ac:	01010413          	add	s0,sp,16
    400019b0:	fffff097          	auipc	ra,0xfffff
    400019b4:	968080e7          	jalr	-1688(ra) # 40000318 <riscv_interrupt_init>
    400019b8:	00813083          	ld	ra,8(sp)
    400019bc:	00013403          	ld	s0,0(sp)
    400019c0:	01010113          	add	sp,sp,16
    400019c4:	00008067          	ret

00000000400019c8 <k_interrupt_handler>:
    400019c8:	ff010113          	add	sp,sp,-16
    400019cc:	00113423          	sd	ra,8(sp)
    400019d0:	00813023          	sd	s0,0(sp)
    400019d4:	01010413          	add	s0,sp,16
    400019d8:	fffff097          	auipc	ra,0xfffff
    400019dc:	a80080e7          	jalr	-1408(ra) # 40000458 <riscv_interrupt_handler>
    400019e0:	00813083          	ld	ra,8(sp)
    400019e4:	00013403          	ld	s0,0(sp)
    400019e8:	01010113          	add	sp,sp,16
    400019ec:	00008067          	ret

00000000400019f0 <k_interrupt_vector>:
    400019f0:	f0010113          	add	sp,sp,-256
    400019f4:	00113023          	sd	ra,0(sp)
    400019f8:	00213423          	sd	sp,8(sp)
    400019fc:	00313823          	sd	gp,16(sp)
    40001a00:	00413c23          	sd	tp,24(sp)
    40001a04:	02513023          	sd	t0,32(sp)
    40001a08:	02613423          	sd	t1,40(sp)
    40001a0c:	02713823          	sd	t2,48(sp)
    40001a10:	02813c23          	sd	s0,56(sp)
    40001a14:	04913023          	sd	s1,64(sp)
    40001a18:	04a13423          	sd	a0,72(sp)
    40001a1c:	04b13823          	sd	a1,80(sp)
    40001a20:	04c13c23          	sd	a2,88(sp)
    40001a24:	06d13023          	sd	a3,96(sp)
    40001a28:	06e13423          	sd	a4,104(sp)
    40001a2c:	06f13823          	sd	a5,112(sp)
    40001a30:	07013c23          	sd	a6,120(sp)
    40001a34:	09113023          	sd	a7,128(sp)
    40001a38:	09213423          	sd	s2,136(sp)
    40001a3c:	09313823          	sd	s3,144(sp)
    40001a40:	09413c23          	sd	s4,152(sp)
    40001a44:	0b513023          	sd	s5,160(sp)
    40001a48:	0b613423          	sd	s6,168(sp)
    40001a4c:	0b713823          	sd	s7,176(sp)
    40001a50:	0b813c23          	sd	s8,184(sp)
    40001a54:	0d913023          	sd	s9,192(sp)
    40001a58:	0da13423          	sd	s10,200(sp)
    40001a5c:	0db13823          	sd	s11,208(sp)
    40001a60:	0dc13c23          	sd	t3,216(sp)
    40001a64:	0fd13023          	sd	t4,224(sp)
    40001a68:	0fe13423          	sd	t5,232(sp)
    40001a6c:	0ff13823          	sd	t6,240(sp)
    40001a70:	00000097          	auipc	ra,0x0
    40001a74:	f58080e7          	jalr	-168(ra) # 400019c8 <k_interrupt_handler>
    40001a78:	00013083          	ld	ra,0(sp)
    40001a7c:	00813103          	ld	sp,8(sp)
    40001a80:	01013183          	ld	gp,16(sp)
    40001a84:	02013283          	ld	t0,32(sp)
    40001a88:	02813303          	ld	t1,40(sp)
    40001a8c:	03013383          	ld	t2,48(sp)
    40001a90:	03813403          	ld	s0,56(sp)
    40001a94:	04013483          	ld	s1,64(sp)
    40001a98:	04813503          	ld	a0,72(sp)
    40001a9c:	05013583          	ld	a1,80(sp)
    40001aa0:	05813603          	ld	a2,88(sp)
    40001aa4:	06013683          	ld	a3,96(sp)
    40001aa8:	06813703          	ld	a4,104(sp)
    40001aac:	07013783          	ld	a5,112(sp)
    40001ab0:	07813803          	ld	a6,120(sp)
    40001ab4:	08013883          	ld	a7,128(sp)
    40001ab8:	08813903          	ld	s2,136(sp)
    40001abc:	09013983          	ld	s3,144(sp)
    40001ac0:	09813a03          	ld	s4,152(sp)
    40001ac4:	0a013a83          	ld	s5,160(sp)
    40001ac8:	0a813b03          	ld	s6,168(sp)
    40001acc:	0b013b83          	ld	s7,176(sp)
    40001ad0:	0b813c03          	ld	s8,184(sp)
    40001ad4:	0c013c83          	ld	s9,192(sp)
    40001ad8:	0c813d03          	ld	s10,200(sp)
    40001adc:	0d013d83          	ld	s11,208(sp)
    40001ae0:	0d813e03          	ld	t3,216(sp)
    40001ae4:	0e013e83          	ld	t4,224(sp)
    40001ae8:	0e813f03          	ld	t5,232(sp)
    40001aec:	0f013f83          	ld	t6,240(sp)
    40001af0:	10010113          	add	sp,sp,256
    40001af4:	10200073          	sret
    40001af8:	00000013          	nop
    40001afc:	00000013          	nop

0000000040001b00 <k_msleep>:
    40001b00:	ff010113          	add	sp,sp,-16
    40001b04:	00813423          	sd	s0,8(sp)
    40001b08:	01010413          	add	s0,sp,16
    40001b0c:	00051063          	bnez	a0,40001b0c <k_msleep+0xc>
    40001b10:	00813403          	ld	s0,8(sp)
    40001b14:	01010113          	add	sp,sp,16
    40001b18:	00008067          	ret

0000000040001b1c <k_sleep>:
    40001b1c:	ff010113          	add	sp,sp,-16
    40001b20:	00813423          	sd	s0,8(sp)
    40001b24:	01010413          	add	s0,sp,16
    40001b28:	00051063          	bnez	a0,40001b28 <k_sleep+0xc>
    40001b2c:	00813403          	ld	s0,8(sp)
    40001b30:	01010113          	add	sp,sp,16
    40001b34:	00008067          	ret

0000000040001b38 <k_time_stamp_init>:
    40001b38:	ff010113          	add	sp,sp,-16
    40001b3c:	00813423          	sd	s0,8(sp)
    40001b40:	01010413          	add	s0,sp,16
    40001b44:	00018797          	auipc	a5,0x18
    40001b48:	7807be23          	sd	zero,1948(a5) # 4001a2e0 <time_stamp>
    40001b4c:	00813403          	ld	s0,8(sp)
    40001b50:	01010113          	add	sp,sp,16
    40001b54:	00008067          	ret

0000000040001b58 <k_time_stamp_update>:
    40001b58:	ff010113          	add	sp,sp,-16
    40001b5c:	00813423          	sd	s0,8(sp)
    40001b60:	01010413          	add	s0,sp,16
    40001b64:	00018717          	auipc	a4,0x18
    40001b68:	77c70713          	add	a4,a4,1916 # 4001a2e0 <time_stamp>
    40001b6c:	00073783          	ld	a5,0(a4)
    40001b70:	00178793          	add	a5,a5,1
    40001b74:	00f73023          	sd	a5,0(a4)
    40001b78:	00813403          	ld	s0,8(sp)
    40001b7c:	01010113          	add	sp,sp,16
    40001b80:	00008067          	ret

0000000040001b84 <k_get_time_stamp_duration>:
    40001b84:	ff010113          	add	sp,sp,-16
    40001b88:	00813423          	sd	s0,8(sp)
    40001b8c:	01010413          	add	s0,sp,16
    40001b90:	40a585bb          	subw	a1,a1,a0
    40001b94:	00b62023          	sw	a1,0(a2)
    40001b98:	00813403          	ld	s0,8(sp)
    40001b9c:	01010113          	add	sp,sp,16
    40001ba0:	00008067          	ret

0000000040001ba4 <k_start_timing>:
    40001ba4:	ff010113          	add	sp,sp,-16
    40001ba8:	00813423          	sd	s0,8(sp)
    40001bac:	01010413          	add	s0,sp,16
    40001bb0:	00018797          	auipc	a5,0x18
    40001bb4:	7307b783          	ld	a5,1840(a5) # 4001a2e0 <time_stamp>
    40001bb8:	00018717          	auipc	a4,0x18
    40001bbc:	72f73023          	sd	a5,1824(a4) # 4001a2d8 <cur_time_stamp>
    40001bc0:	00813403          	ld	s0,8(sp)
    40001bc4:	01010113          	add	sp,sp,16
    40001bc8:	00008067          	ret

0000000040001bcc <k_stop_timing>:
    40001bcc:	ff010113          	add	sp,sp,-16
    40001bd0:	00813423          	sd	s0,8(sp)
    40001bd4:	01010413          	add	s0,sp,16
    40001bd8:	00018797          	auipc	a5,0x18
    40001bdc:	7087b783          	ld	a5,1800(a5) # 4001a2e0 <time_stamp>
    40001be0:	00018717          	auipc	a4,0x18
    40001be4:	6f873703          	ld	a4,1784(a4) # 4001a2d8 <cur_time_stamp>
    40001be8:	40e787bb          	subw	a5,a5,a4
    40001bec:	00f52023          	sw	a5,0(a0)
    40001bf0:	00813403          	ld	s0,8(sp)
    40001bf4:	01010113          	add	sp,sp,16
    40001bf8:	00008067          	ret

0000000040001bfc <k_strcpy>:
    40001bfc:	ff010113          	add	sp,sp,-16
    40001c00:	00813423          	sd	s0,8(sp)
    40001c04:	01010413          	add	s0,sp,16
    40001c08:	0005c783          	lbu	a5,0(a1)
    40001c0c:	00078c63          	beqz	a5,40001c24 <k_strcpy+0x28>
    40001c10:	00158593          	add	a1,a1,1
    40001c14:	00150513          	add	a0,a0,1
    40001c18:	fef50fa3          	sb	a5,-1(a0)
    40001c1c:	0005c783          	lbu	a5,0(a1)
    40001c20:	fe0798e3          	bnez	a5,40001c10 <k_strcpy+0x14>
    40001c24:	00050023          	sb	zero,0(a0)
    40001c28:	00813403          	ld	s0,8(sp)
    40001c2c:	01010113          	add	sp,sp,16
    40001c30:	00008067          	ret

0000000040001c34 <retrieve_command_history>:
    40001c34:	fd010113          	add	sp,sp,-48
    40001c38:	02113423          	sd	ra,40(sp)
    40001c3c:	02813023          	sd	s0,32(sp)
    40001c40:	03010413          	add	s0,sp,48
    40001c44:	10051c63          	bnez	a0,40001d5c <retrieve_command_history+0x128>
    40001c48:	00913c23          	sd	s1,24(sp)
    40001c4c:	00050493          	mv	s1,a0
    40001c50:	00018797          	auipc	a5,0x18
    40001c54:	6a07a783          	lw	a5,1696(a5) # 4001a2f0 <cmd_history_cur>
    40001c58:	00079663          	bnez	a5,40001c64 <retrieve_command_history+0x30>
    40001c5c:	01813483          	ld	s1,24(sp)
    40001c60:	20c0006f          	j	40001e6c <retrieve_command_history+0x238>
    40001c64:	01213823          	sd	s2,16(sp)
    40001c68:	00017517          	auipc	a0,0x17
    40001c6c:	55050513          	add	a0,a0,1360 # 400191b8 <kernel_text_end+0x161b8>
    40001c70:	fffff097          	auipc	ra,0xfffff
    40001c74:	148080e7          	jalr	328(ra) # 40000db8 <k_printf>
    40001c78:	00018717          	auipc	a4,0x18
    40001c7c:	68072703          	lw	a4,1664(a4) # 4001a2f8 <cmd_buf_idx>
    40001c80:	fff00793          	li	a5,-1
    40001c84:	02f74c63          	blt	a4,a5,40001cbc <retrieve_command_history+0x88>
    40001c88:	01313423          	sd	s3,8(sp)
    40001c8c:	00017997          	auipc	s3,0x17
    40001c90:	53498993          	add	s3,s3,1332 # 400191c0 <kernel_text_end+0x161c0>
    40001c94:	00018917          	auipc	s2,0x18
    40001c98:	66490913          	add	s2,s2,1636 # 4001a2f8 <cmd_buf_idx>
    40001c9c:	00098513          	mv	a0,s3
    40001ca0:	fffff097          	auipc	ra,0xfffff
    40001ca4:	118080e7          	jalr	280(ra) # 40000db8 <k_printf>
    40001ca8:	00048793          	mv	a5,s1
    40001cac:	0014849b          	addw	s1,s1,1
    40001cb0:	00092703          	lw	a4,0(s2)
    40001cb4:	fef754e3          	bge	a4,a5,40001c9c <retrieve_command_history+0x68>
    40001cb8:	00813983          	ld	s3,8(sp)
    40001cbc:	00017517          	auipc	a0,0x17
    40001cc0:	50c50513          	add	a0,a0,1292 # 400191c8 <kernel_text_end+0x161c8>
    40001cc4:	fffff097          	auipc	ra,0xfffff
    40001cc8:	0f4080e7          	jalr	244(ra) # 40000db8 <k_printf>
    40001ccc:	0001d497          	auipc	s1,0x1d
    40001cd0:	fbc48493          	add	s1,s1,-68 # 4001ec88 <cmd_buf>
    40001cd4:	40000613          	li	a2,1024
    40001cd8:	00000593          	li	a1,0
    40001cdc:	00048513          	mv	a0,s1
    40001ce0:	00000097          	auipc	ra,0x0
    40001ce4:	c90080e7          	jalr	-880(ra) # 40001970 <k_memset>
    40001ce8:	00018917          	auipc	s2,0x18
    40001cec:	60890913          	add	s2,s2,1544 # 4001a2f0 <cmd_history_cur>
    40001cf0:	00092783          	lw	a5,0(s2)
    40001cf4:	fff7879b          	addw	a5,a5,-1
    40001cf8:	0007859b          	sext.w	a1,a5
    40001cfc:	00f92023          	sw	a5,0(s2)
    40001d00:	00a59793          	sll	a5,a1,0xa
    40001d04:	0001e597          	auipc	a1,0x1e
    40001d08:	38458593          	add	a1,a1,900 # 40020088 <cmd_history>
    40001d0c:	00f585b3          	add	a1,a1,a5
    40001d10:	00048513          	mv	a0,s1
    40001d14:	00000097          	auipc	ra,0x0
    40001d18:	ee8080e7          	jalr	-280(ra) # 40001bfc <k_strcpy>
    40001d1c:	00092703          	lw	a4,0(s2)
    40001d20:	00271713          	sll	a4,a4,0x2
    40001d24:	0001d797          	auipc	a5,0x1d
    40001d28:	36478793          	add	a5,a5,868 # 4001f088 <cmd_history_len>
    40001d2c:	00e787b3          	add	a5,a5,a4
    40001d30:	0007a783          	lw	a5,0(a5)
    40001d34:	00018717          	auipc	a4,0x18
    40001d38:	5cf72223          	sw	a5,1476(a4) # 4001a2f8 <cmd_buf_idx>
    40001d3c:	00048593          	mv	a1,s1
    40001d40:	00017517          	auipc	a0,0x17
    40001d44:	49050513          	add	a0,a0,1168 # 400191d0 <kernel_text_end+0x161d0>
    40001d48:	fffff097          	auipc	ra,0xfffff
    40001d4c:	070080e7          	jalr	112(ra) # 40000db8 <k_printf>
    40001d50:	01813483          	ld	s1,24(sp)
    40001d54:	01013903          	ld	s2,16(sp)
    40001d58:	1140006f          	j	40001e6c <retrieve_command_history+0x238>
    40001d5c:	00018717          	auipc	a4,0x18
    40001d60:	59472703          	lw	a4,1428(a4) # 4001a2f0 <cmd_history_cur>
    40001d64:	00018797          	auipc	a5,0x18
    40001d68:	5907a783          	lw	a5,1424(a5) # 4001a2f4 <cmd_history_cnt>
    40001d6c:	10f70063          	beq	a4,a5,40001e6c <retrieve_command_history+0x238>
    40001d70:	00913c23          	sd	s1,24(sp)
    40001d74:	01213823          	sd	s2,16(sp)
    40001d78:	00017517          	auipc	a0,0x17
    40001d7c:	44050513          	add	a0,a0,1088 # 400191b8 <kernel_text_end+0x161b8>
    40001d80:	fffff097          	auipc	ra,0xfffff
    40001d84:	038080e7          	jalr	56(ra) # 40000db8 <k_printf>
    40001d88:	00018717          	auipc	a4,0x18
    40001d8c:	57072703          	lw	a4,1392(a4) # 4001a2f8 <cmd_buf_idx>
    40001d90:	fff00793          	li	a5,-1
    40001d94:	02f74e63          	blt	a4,a5,40001dd0 <retrieve_command_history+0x19c>
    40001d98:	01313423          	sd	s3,8(sp)
    40001d9c:	00000493          	li	s1,0
    40001da0:	00017997          	auipc	s3,0x17
    40001da4:	42098993          	add	s3,s3,1056 # 400191c0 <kernel_text_end+0x161c0>
    40001da8:	00018917          	auipc	s2,0x18
    40001dac:	55090913          	add	s2,s2,1360 # 4001a2f8 <cmd_buf_idx>
    40001db0:	00098513          	mv	a0,s3
    40001db4:	fffff097          	auipc	ra,0xfffff
    40001db8:	004080e7          	jalr	4(ra) # 40000db8 <k_printf>
    40001dbc:	00048793          	mv	a5,s1
    40001dc0:	0014849b          	addw	s1,s1,1
    40001dc4:	00092703          	lw	a4,0(s2)
    40001dc8:	fef754e3          	bge	a4,a5,40001db0 <retrieve_command_history+0x17c>
    40001dcc:	00813983          	ld	s3,8(sp)
    40001dd0:	00017517          	auipc	a0,0x17
    40001dd4:	3f850513          	add	a0,a0,1016 # 400191c8 <kernel_text_end+0x161c8>
    40001dd8:	fffff097          	auipc	ra,0xfffff
    40001ddc:	fe0080e7          	jalr	-32(ra) # 40000db8 <k_printf>
    40001de0:	0001d497          	auipc	s1,0x1d
    40001de4:	ea848493          	add	s1,s1,-344 # 4001ec88 <cmd_buf>
    40001de8:	40000613          	li	a2,1024
    40001dec:	00000593          	li	a1,0
    40001df0:	00048513          	mv	a0,s1
    40001df4:	00000097          	auipc	ra,0x0
    40001df8:	b7c080e7          	jalr	-1156(ra) # 40001970 <k_memset>
    40001dfc:	00018917          	auipc	s2,0x18
    40001e00:	4f490913          	add	s2,s2,1268 # 4001a2f0 <cmd_history_cur>
    40001e04:	00092783          	lw	a5,0(s2)
    40001e08:	0017879b          	addw	a5,a5,1
    40001e0c:	0007859b          	sext.w	a1,a5
    40001e10:	00f92023          	sw	a5,0(s2)
    40001e14:	00a59793          	sll	a5,a1,0xa
    40001e18:	0001e597          	auipc	a1,0x1e
    40001e1c:	27058593          	add	a1,a1,624 # 40020088 <cmd_history>
    40001e20:	00f585b3          	add	a1,a1,a5
    40001e24:	00048513          	mv	a0,s1
    40001e28:	00000097          	auipc	ra,0x0
    40001e2c:	dd4080e7          	jalr	-556(ra) # 40001bfc <k_strcpy>
    40001e30:	00092703          	lw	a4,0(s2)
    40001e34:	00271713          	sll	a4,a4,0x2
    40001e38:	0001d797          	auipc	a5,0x1d
    40001e3c:	25078793          	add	a5,a5,592 # 4001f088 <cmd_history_len>
    40001e40:	00e787b3          	add	a5,a5,a4
    40001e44:	0007a783          	lw	a5,0(a5)
    40001e48:	00018717          	auipc	a4,0x18
    40001e4c:	4af72823          	sw	a5,1200(a4) # 4001a2f8 <cmd_buf_idx>
    40001e50:	00048593          	mv	a1,s1
    40001e54:	00017517          	auipc	a0,0x17
    40001e58:	37c50513          	add	a0,a0,892 # 400191d0 <kernel_text_end+0x161d0>
    40001e5c:	fffff097          	auipc	ra,0xfffff
    40001e60:	f5c080e7          	jalr	-164(ra) # 40000db8 <k_printf>
    40001e64:	01813483          	ld	s1,24(sp)
    40001e68:	01013903          	ld	s2,16(sp)
    40001e6c:	02813083          	ld	ra,40(sp)
    40001e70:	02013403          	ld	s0,32(sp)
    40001e74:	03010113          	add	sp,sp,48
    40001e78:	00008067          	ret

0000000040001e7c <add_command_history>:
    40001e7c:	fe010113          	add	sp,sp,-32
    40001e80:	00113c23          	sd	ra,24(sp)
    40001e84:	00813823          	sd	s0,16(sp)
    40001e88:	00913423          	sd	s1,8(sp)
    40001e8c:	01213023          	sd	s2,0(sp)
    40001e90:	02010413          	add	s0,sp,32
    40001e94:	00018497          	auipc	s1,0x18
    40001e98:	46048493          	add	s1,s1,1120 # 4001a2f4 <cmd_history_cnt>
    40001e9c:	0004a503          	lw	a0,0(s1)
    40001ea0:	0015079b          	addw	a5,a0,1
    40001ea4:	00f4a023          	sw	a5,0(s1)
    40001ea8:	00a51513          	sll	a0,a0,0xa
    40001eac:	0001e917          	auipc	s2,0x1e
    40001eb0:	1dc90913          	add	s2,s2,476 # 40020088 <cmd_history>
    40001eb4:	40000613          	li	a2,1024
    40001eb8:	00000593          	li	a1,0
    40001ebc:	00a90533          	add	a0,s2,a0
    40001ec0:	00000097          	auipc	ra,0x0
    40001ec4:	ab0080e7          	jalr	-1360(ra) # 40001970 <k_memset>
    40001ec8:	0004a503          	lw	a0,0(s1)
    40001ecc:	fff5051b          	addw	a0,a0,-1
    40001ed0:	00a51513          	sll	a0,a0,0xa
    40001ed4:	0001d597          	auipc	a1,0x1d
    40001ed8:	db458593          	add	a1,a1,-588 # 4001ec88 <cmd_buf>
    40001edc:	00a90533          	add	a0,s2,a0
    40001ee0:	00000097          	auipc	ra,0x0
    40001ee4:	d1c080e7          	jalr	-740(ra) # 40001bfc <k_strcpy>
    40001ee8:	0004a683          	lw	a3,0(s1)
    40001eec:	fff6871b          	addw	a4,a3,-1
    40001ef0:	00271713          	sll	a4,a4,0x2
    40001ef4:	0001d797          	auipc	a5,0x1d
    40001ef8:	19478793          	add	a5,a5,404 # 4001f088 <cmd_history_len>
    40001efc:	00e787b3          	add	a5,a5,a4
    40001f00:	00018717          	auipc	a4,0x18
    40001f04:	3f872703          	lw	a4,1016(a4) # 4001a2f8 <cmd_buf_idx>
    40001f08:	00e7a023          	sw	a4,0(a5)
    40001f0c:	00018797          	auipc	a5,0x18
    40001f10:	3ed7a223          	sw	a3,996(a5) # 4001a2f0 <cmd_history_cur>
    40001f14:	01813083          	ld	ra,24(sp)
    40001f18:	01013403          	ld	s0,16(sp)
    40001f1c:	00813483          	ld	s1,8(sp)
    40001f20:	00013903          	ld	s2,0(sp)
    40001f24:	02010113          	add	sp,sp,32
    40001f28:	00008067          	ret

0000000040001f2c <command_empty>:
    40001f2c:	ff010113          	add	sp,sp,-16
    40001f30:	00813423          	sd	s0,8(sp)
    40001f34:	01010413          	add	s0,sp,16
    40001f38:	00018517          	auipc	a0,0x18
    40001f3c:	3c052503          	lw	a0,960(a0) # 4001a2f8 <cmd_buf_idx>
    40001f40:	02a05a63          	blez	a0,40001f74 <command_empty+0x48>
    40001f44:	0001d797          	auipc	a5,0x1d
    40001f48:	d4478793          	add	a5,a5,-700 # 4001ec88 <cmd_buf>
    40001f4c:	00f50633          	add	a2,a0,a5
    40001f50:	00000593          	li	a1,0
    40001f54:	02000693          	li	a3,32
    40001f58:	00c0006f          	j	40001f64 <command_empty+0x38>
    40001f5c:	00178793          	add	a5,a5,1
    40001f60:	00c78c63          	beq	a5,a2,40001f78 <command_empty+0x4c>
    40001f64:	0007c703          	lbu	a4,0(a5)
    40001f68:	fed71ae3          	bne	a4,a3,40001f5c <command_empty+0x30>
    40001f6c:	0015859b          	addw	a1,a1,1
    40001f70:	fedff06f          	j	40001f5c <command_empty+0x30>
    40001f74:	00000593          	li	a1,0
    40001f78:	40b50533          	sub	a0,a0,a1
    40001f7c:	00153513          	seqz	a0,a0
    40001f80:	00813403          	ld	s0,8(sp)
    40001f84:	01010113          	add	sp,sp,16
    40001f88:	00008067          	ret

0000000040001f8c <console_init>:
    40001f8c:	fd010113          	add	sp,sp,-48
    40001f90:	02113423          	sd	ra,40(sp)
    40001f94:	02813023          	sd	s0,32(sp)
    40001f98:	00913c23          	sd	s1,24(sp)
    40001f9c:	01213823          	sd	s2,16(sp)
    40001fa0:	01313423          	sd	s3,8(sp)
    40001fa4:	03010413          	add	s0,sp,48
    40001fa8:	00018797          	auipc	a5,0x18
    40001fac:	3407a823          	sw	zero,848(a5) # 4001a2f8 <cmd_buf_idx>
    40001fb0:	00018797          	auipc	a5,0x18
    40001fb4:	3207ae23          	sw	zero,828(a5) # 4001a2ec <last_duration>
    40001fb8:	00018797          	auipc	a5,0x18
    40001fbc:	3207a823          	sw	zero,816(a5) # 4001a2e8 <arrow_flag>
    40001fc0:	00018797          	auipc	a5,0x18
    40001fc4:	3207aa23          	sw	zero,820(a5) # 4001a2f4 <cmd_history_cnt>
    40001fc8:	00018797          	auipc	a5,0x18
    40001fcc:	3207a423          	sw	zero,808(a5) # 4001a2f0 <cmd_history_cur>
    40001fd0:	0001e917          	auipc	s2,0x1e
    40001fd4:	0b890913          	add	s2,s2,184 # 40020088 <cmd_history>
    40001fd8:	0001d497          	auipc	s1,0x1d
    40001fdc:	0b048493          	add	s1,s1,176 # 4001f088 <cmd_history_len>
    40001fe0:	0001e997          	auipc	s3,0x1e
    40001fe4:	0a898993          	add	s3,s3,168 # 40020088 <cmd_history>
    40001fe8:	40000613          	li	a2,1024
    40001fec:	00000593          	li	a1,0
    40001ff0:	00090513          	mv	a0,s2
    40001ff4:	00000097          	auipc	ra,0x0
    40001ff8:	97c080e7          	jalr	-1668(ra) # 40001970 <k_memset>
    40001ffc:	0004a023          	sw	zero,0(s1)
    40002000:	40090913          	add	s2,s2,1024
    40002004:	00448493          	add	s1,s1,4
    40002008:	ff3490e3          	bne	s1,s3,40001fe8 <console_init+0x5c>
    4000200c:	40000613          	li	a2,1024
    40002010:	00000593          	li	a1,0
    40002014:	0001d517          	auipc	a0,0x1d
    40002018:	c7450513          	add	a0,a0,-908 # 4001ec88 <cmd_buf>
    4000201c:	00000097          	auipc	ra,0x0
    40002020:	954080e7          	jalr	-1708(ra) # 40001970 <k_memset>
    40002024:	00017517          	auipc	a0,0x17
    40002028:	1b450513          	add	a0,a0,436 # 400191d8 <kernel_text_end+0x161d8>
    4000202c:	fffff097          	auipc	ra,0xfffff
    40002030:	d8c080e7          	jalr	-628(ra) # 40000db8 <k_printf>
    40002034:	00017517          	auipc	a0,0x17
    40002038:	46450513          	add	a0,a0,1124 # 40019498 <kernel_text_end+0x16498>
    4000203c:	fffff097          	auipc	ra,0xfffff
    40002040:	d7c080e7          	jalr	-644(ra) # 40000db8 <k_printf>
    40002044:	02813083          	ld	ra,40(sp)
    40002048:	02013403          	ld	s0,32(sp)
    4000204c:	01813483          	ld	s1,24(sp)
    40002050:	01013903          	ld	s2,16(sp)
    40002054:	00813983          	ld	s3,8(sp)
    40002058:	03010113          	add	sp,sp,48
    4000205c:	00008067          	ret

0000000040002060 <console_display>:
    40002060:	ff010113          	add	sp,sp,-16
    40002064:	00113423          	sd	ra,8(sp)
    40002068:	00813023          	sd	s0,0(sp)
    4000206c:	01010413          	add	s0,sp,16
    40002070:	05b00793          	li	a5,91
    40002074:	06a7e863          	bltu	a5,a0,400020e4 <console_display+0x84>
    40002078:	04000793          	li	a5,64
    4000207c:	02a7f863          	bgeu	a5,a0,400020ac <console_display+0x4c>
    40002080:	fbf5079b          	addw	a5,a0,-65
    40002084:	0ff7f693          	zext.b	a3,a5
    40002088:	01a00713          	li	a4,26
    4000208c:	26d76663          	bltu	a4,a3,400022f8 <console_display+0x298>
    40002090:	00269793          	sll	a5,a3,0x2
    40002094:	00017717          	auipc	a4,0x17
    40002098:	50070713          	add	a4,a4,1280 # 40019594 <kernel_text_end+0x16594>
    4000209c:	00e787b3          	add	a5,a5,a4
    400020a0:	0007a783          	lw	a5,0(a5)
    400020a4:	00e787b3          	add	a5,a5,a4
    400020a8:	00078067          	jr	a5
    400020ac:	00d00793          	li	a5,13
    400020b0:	04f50e63          	beq	a0,a5,4000210c <console_display+0xac>
    400020b4:	01b00793          	li	a5,27
    400020b8:	06f50e63          	beq	a0,a5,40002134 <console_display+0xd4>
    400020bc:	00800793          	li	a5,8
    400020c0:	22f51c63          	bne	a0,a5,400022f8 <console_display+0x298>
    400020c4:	00018797          	auipc	a5,0x18
    400020c8:	2347a783          	lw	a5,564(a5) # 4001a2f8 <cmd_buf_idx>
    400020cc:	06f05463          	blez	a5,40002134 <console_display+0xd4>
    400020d0:	00017517          	auipc	a0,0x17
    400020d4:	3d050513          	add	a0,a0,976 # 400194a0 <kernel_text_end+0x164a0>
    400020d8:	fffff097          	auipc	ra,0xfffff
    400020dc:	ce0080e7          	jalr	-800(ra) # 40000db8 <k_printf>
    400020e0:	0540006f          	j	40002134 <console_display+0xd4>
    400020e4:	07f00793          	li	a5,127
    400020e8:	20f51863          	bne	a0,a5,400022f8 <console_display+0x298>
    400020ec:	00018797          	auipc	a5,0x18
    400020f0:	20c7a783          	lw	a5,524(a5) # 4001a2f8 <cmd_buf_idx>
    400020f4:	04f05063          	blez	a5,40002134 <console_display+0xd4>
    400020f8:	00017517          	auipc	a0,0x17
    400020fc:	3a850513          	add	a0,a0,936 # 400194a0 <kernel_text_end+0x164a0>
    40002100:	fffff097          	auipc	ra,0xfffff
    40002104:	cb8080e7          	jalr	-840(ra) # 40000db8 <k_printf>
    40002108:	02c0006f          	j	40002134 <console_display+0xd4>
    4000210c:	0001d597          	auipc	a1,0x1d
    40002110:	b7c58593          	add	a1,a1,-1156 # 4001ec88 <cmd_buf>
    40002114:	00017517          	auipc	a0,0x17
    40002118:	39450513          	add	a0,a0,916 # 400194a8 <kernel_text_end+0x164a8>
    4000211c:	fffff097          	auipc	ra,0xfffff
    40002120:	c9c080e7          	jalr	-868(ra) # 40000db8 <k_printf>
    40002124:	00017517          	auipc	a0,0x17
    40002128:	39450513          	add	a0,a0,916 # 400194b8 <kernel_text_end+0x164b8>
    4000212c:	fffff097          	auipc	ra,0xfffff
    40002130:	c8c080e7          	jalr	-884(ra) # 40000db8 <k_printf>
    40002134:	00813083          	ld	ra,8(sp)
    40002138:	00013403          	ld	s0,0(sp)
    4000213c:	01010113          	add	sp,sp,16
    40002140:	00008067          	ret
    40002144:	00018797          	auipc	a5,0x18
    40002148:	1a47a783          	lw	a5,420(a5) # 4001a2e8 <arrow_flag>
    4000214c:	02078663          	beqz	a5,40002178 <console_display+0x118>
    40002150:	00018717          	auipc	a4,0x18
    40002154:	19c72703          	lw	a4,412(a4) # 4001a2ec <last_duration>
    40002158:	00a00793          	li	a5,10
    4000215c:	fce7fce3          	bgeu	a5,a4,40002134 <console_display+0xd4>
    40002160:	05b00593          	li	a1,91
    40002164:	00017517          	auipc	a0,0x17
    40002168:	f9450513          	add	a0,a0,-108 # 400190f8 <kernel_text_end+0x160f8>
    4000216c:	fffff097          	auipc	ra,0xfffff
    40002170:	c4c080e7          	jalr	-948(ra) # 40000db8 <k_printf>
    40002174:	fc1ff06f          	j	40002134 <console_display+0xd4>
    40002178:	05b00593          	li	a1,91
    4000217c:	00017517          	auipc	a0,0x17
    40002180:	f7c50513          	add	a0,a0,-132 # 400190f8 <kernel_text_end+0x160f8>
    40002184:	fffff097          	auipc	ra,0xfffff
    40002188:	c34080e7          	jalr	-972(ra) # 40000db8 <k_printf>
    4000218c:	fa9ff06f          	j	40002134 <console_display+0xd4>
    40002190:	00018717          	auipc	a4,0x18
    40002194:	15872703          	lw	a4,344(a4) # 4001a2e8 <arrow_flag>
    40002198:	00200793          	li	a5,2
    4000219c:	02f71663          	bne	a4,a5,400021c8 <console_display+0x168>
    400021a0:	00018717          	auipc	a4,0x18
    400021a4:	14c72703          	lw	a4,332(a4) # 4001a2ec <last_duration>
    400021a8:	00a00793          	li	a5,10
    400021ac:	f8e7f4e3          	bgeu	a5,a4,40002134 <console_display+0xd4>
    400021b0:	04100593          	li	a1,65
    400021b4:	00017517          	auipc	a0,0x17
    400021b8:	30c50513          	add	a0,a0,780 # 400194c0 <kernel_text_end+0x164c0>
    400021bc:	fffff097          	auipc	ra,0xfffff
    400021c0:	bfc080e7          	jalr	-1028(ra) # 40000db8 <k_printf>
    400021c4:	f71ff06f          	j	40002134 <console_display+0xd4>
    400021c8:	04100593          	li	a1,65
    400021cc:	00017517          	auipc	a0,0x17
    400021d0:	f2c50513          	add	a0,a0,-212 # 400190f8 <kernel_text_end+0x160f8>
    400021d4:	fffff097          	auipc	ra,0xfffff
    400021d8:	be4080e7          	jalr	-1052(ra) # 40000db8 <k_printf>
    400021dc:	f59ff06f          	j	40002134 <console_display+0xd4>
    400021e0:	00018717          	auipc	a4,0x18
    400021e4:	10872703          	lw	a4,264(a4) # 4001a2e8 <arrow_flag>
    400021e8:	00200793          	li	a5,2
    400021ec:	02f71663          	bne	a4,a5,40002218 <console_display+0x1b8>
    400021f0:	00018717          	auipc	a4,0x18
    400021f4:	0fc72703          	lw	a4,252(a4) # 4001a2ec <last_duration>
    400021f8:	00a00793          	li	a5,10
    400021fc:	f2e7fce3          	bgeu	a5,a4,40002134 <console_display+0xd4>
    40002200:	04200593          	li	a1,66
    40002204:	00017517          	auipc	a0,0x17
    40002208:	2bc50513          	add	a0,a0,700 # 400194c0 <kernel_text_end+0x164c0>
    4000220c:	fffff097          	auipc	ra,0xfffff
    40002210:	bac080e7          	jalr	-1108(ra) # 40000db8 <k_printf>
    40002214:	f21ff06f          	j	40002134 <console_display+0xd4>
    40002218:	04200593          	li	a1,66
    4000221c:	00017517          	auipc	a0,0x17
    40002220:	edc50513          	add	a0,a0,-292 # 400190f8 <kernel_text_end+0x160f8>
    40002224:	fffff097          	auipc	ra,0xfffff
    40002228:	b94080e7          	jalr	-1132(ra) # 40000db8 <k_printf>
    4000222c:	f09ff06f          	j	40002134 <console_display+0xd4>
    40002230:	00018717          	auipc	a4,0x18
    40002234:	0b872703          	lw	a4,184(a4) # 4001a2e8 <arrow_flag>
    40002238:	00200793          	li	a5,2
    4000223c:	04f71063          	bne	a4,a5,4000227c <console_display+0x21c>
    40002240:	00018717          	auipc	a4,0x18
    40002244:	0ac72703          	lw	a4,172(a4) # 4001a2ec <last_duration>
    40002248:	00a00793          	li	a5,10
    4000224c:	00e7ec63          	bltu	a5,a4,40002264 <console_display+0x204>
    40002250:	00017517          	auipc	a0,0x17
    40002254:	27850513          	add	a0,a0,632 # 400194c8 <kernel_text_end+0x164c8>
    40002258:	fffff097          	auipc	ra,0xfffff
    4000225c:	b60080e7          	jalr	-1184(ra) # 40000db8 <k_printf>
    40002260:	ed5ff06f          	j	40002134 <console_display+0xd4>
    40002264:	04300593          	li	a1,67
    40002268:	00017517          	auipc	a0,0x17
    4000226c:	25850513          	add	a0,a0,600 # 400194c0 <kernel_text_end+0x164c0>
    40002270:	fffff097          	auipc	ra,0xfffff
    40002274:	b48080e7          	jalr	-1208(ra) # 40000db8 <k_printf>
    40002278:	ebdff06f          	j	40002134 <console_display+0xd4>
    4000227c:	04300593          	li	a1,67
    40002280:	00017517          	auipc	a0,0x17
    40002284:	e7850513          	add	a0,a0,-392 # 400190f8 <kernel_text_end+0x160f8>
    40002288:	fffff097          	auipc	ra,0xfffff
    4000228c:	b30080e7          	jalr	-1232(ra) # 40000db8 <k_printf>
    40002290:	ea5ff06f          	j	40002134 <console_display+0xd4>
    40002294:	00018717          	auipc	a4,0x18
    40002298:	05472703          	lw	a4,84(a4) # 4001a2e8 <arrow_flag>
    4000229c:	00200793          	li	a5,2
    400022a0:	04f71063          	bne	a4,a5,400022e0 <console_display+0x280>
    400022a4:	00018717          	auipc	a4,0x18
    400022a8:	04872703          	lw	a4,72(a4) # 4001a2ec <last_duration>
    400022ac:	00a00793          	li	a5,10
    400022b0:	00e7ec63          	bltu	a5,a4,400022c8 <console_display+0x268>
    400022b4:	00017517          	auipc	a0,0x17
    400022b8:	22450513          	add	a0,a0,548 # 400194d8 <kernel_text_end+0x164d8>
    400022bc:	fffff097          	auipc	ra,0xfffff
    400022c0:	afc080e7          	jalr	-1284(ra) # 40000db8 <k_printf>
    400022c4:	e71ff06f          	j	40002134 <console_display+0xd4>
    400022c8:	04400593          	li	a1,68
    400022cc:	00017517          	auipc	a0,0x17
    400022d0:	1f450513          	add	a0,a0,500 # 400194c0 <kernel_text_end+0x164c0>
    400022d4:	fffff097          	auipc	ra,0xfffff
    400022d8:	ae4080e7          	jalr	-1308(ra) # 40000db8 <k_printf>
    400022dc:	e59ff06f          	j	40002134 <console_display+0xd4>
    400022e0:	04400593          	li	a1,68
    400022e4:	00017517          	auipc	a0,0x17
    400022e8:	e1450513          	add	a0,a0,-492 # 400190f8 <kernel_text_end+0x160f8>
    400022ec:	fffff097          	auipc	ra,0xfffff
    400022f0:	acc080e7          	jalr	-1332(ra) # 40000db8 <k_printf>
    400022f4:	e41ff06f          	j	40002134 <console_display+0xd4>
    400022f8:	00050593          	mv	a1,a0
    400022fc:	00017517          	auipc	a0,0x17
    40002300:	dfc50513          	add	a0,a0,-516 # 400190f8 <kernel_text_end+0x160f8>
    40002304:	fffff097          	auipc	ra,0xfffff
    40002308:	ab4080e7          	jalr	-1356(ra) # 40000db8 <k_printf>
    4000230c:	e29ff06f          	j	40002134 <console_display+0xd4>

0000000040002310 <console_cmd_process>:
    40002310:	ff010113          	add	sp,sp,-16
    40002314:	00113423          	sd	ra,8(sp)
    40002318:	00813023          	sd	s0,0(sp)
    4000231c:	01010413          	add	s0,sp,16
    40002320:	05b00793          	li	a5,91
    40002324:	08a7e463          	bltu	a5,a0,400023ac <console_cmd_process+0x9c>
    40002328:	04000793          	li	a5,64
    4000232c:	02a7f863          	bgeu	a5,a0,4000235c <console_cmd_process+0x4c>
    40002330:	fbf5079b          	addw	a5,a0,-65
    40002334:	0ff7f693          	zext.b	a3,a5
    40002338:	01a00713          	li	a4,26
    4000233c:	44d76663          	bltu	a4,a3,40002788 <console_cmd_process+0x478>
    40002340:	00269793          	sll	a5,a3,0x2
    40002344:	00017717          	auipc	a4,0x17
    40002348:	2bc70713          	add	a4,a4,700 # 40019600 <kernel_text_end+0x16600>
    4000234c:	00e787b3          	add	a5,a5,a4
    40002350:	0007a783          	lw	a5,0(a5)
    40002354:	00e787b3          	add	a5,a5,a4
    40002358:	00078067          	jr	a5
    4000235c:	00d00793          	li	a5,13
    40002360:	08f50663          	beq	a0,a5,400023ec <console_cmd_process+0xdc>
    40002364:	01b00793          	li	a5,27
    40002368:	40f50463          	beq	a0,a5,40002770 <console_cmd_process+0x460>
    4000236c:	00800793          	li	a5,8
    40002370:	40f51c63          	bne	a0,a5,40002788 <console_cmd_process+0x478>
    40002374:	00018797          	auipc	a5,0x18
    40002378:	f607aa23          	sw	zero,-140(a5) # 4001a2e8 <arrow_flag>
    4000237c:	00018797          	auipc	a5,0x18
    40002380:	f7c7a783          	lw	a5,-132(a5) # 4001a2f8 <cmd_buf_idx>
    40002384:	08f05e63          	blez	a5,40002420 <console_cmd_process+0x110>
    40002388:	fff7879b          	addw	a5,a5,-1
    4000238c:	0007871b          	sext.w	a4,a5
    40002390:	00018697          	auipc	a3,0x18
    40002394:	f6f6a423          	sw	a5,-152(a3) # 4001a2f8 <cmd_buf_idx>
    40002398:	0001d797          	auipc	a5,0x1d
    4000239c:	8f078793          	add	a5,a5,-1808 # 4001ec88 <cmd_buf>
    400023a0:	00e787b3          	add	a5,a5,a4
    400023a4:	00078023          	sb	zero,0(a5)
    400023a8:	0780006f          	j	40002420 <console_cmd_process+0x110>
    400023ac:	07f00793          	li	a5,127
    400023b0:	3cf51c63          	bne	a0,a5,40002788 <console_cmd_process+0x478>
    400023b4:	00018797          	auipc	a5,0x18
    400023b8:	f207aa23          	sw	zero,-204(a5) # 4001a2e8 <arrow_flag>
    400023bc:	00018797          	auipc	a5,0x18
    400023c0:	f3c7a783          	lw	a5,-196(a5) # 4001a2f8 <cmd_buf_idx>
    400023c4:	04f05e63          	blez	a5,40002420 <console_cmd_process+0x110>
    400023c8:	fff7879b          	addw	a5,a5,-1
    400023cc:	0007871b          	sext.w	a4,a5
    400023d0:	00018697          	auipc	a3,0x18
    400023d4:	f2f6a423          	sw	a5,-216(a3) # 4001a2f8 <cmd_buf_idx>
    400023d8:	0001d797          	auipc	a5,0x1d
    400023dc:	8b078793          	add	a5,a5,-1872 # 4001ec88 <cmd_buf>
    400023e0:	00e787b3          	add	a5,a5,a4
    400023e4:	00078023          	sb	zero,0(a5)
    400023e8:	0380006f          	j	40002420 <console_cmd_process+0x110>
    400023ec:	00018797          	auipc	a5,0x18
    400023f0:	ee07ae23          	sw	zero,-260(a5) # 4001a2e8 <arrow_flag>
    400023f4:	00000097          	auipc	ra,0x0
    400023f8:	b38080e7          	jalr	-1224(ra) # 40001f2c <command_empty>
    400023fc:	02050a63          	beqz	a0,40002430 <console_cmd_process+0x120>
    40002400:	40000613          	li	a2,1024
    40002404:	00000593          	li	a1,0
    40002408:	0001d517          	auipc	a0,0x1d
    4000240c:	88050513          	add	a0,a0,-1920 # 4001ec88 <cmd_buf>
    40002410:	fffff097          	auipc	ra,0xfffff
    40002414:	560080e7          	jalr	1376(ra) # 40001970 <k_memset>
    40002418:	00018797          	auipc	a5,0x18
    4000241c:	ee07a023          	sw	zero,-288(a5) # 4001a2f8 <cmd_buf_idx>
    40002420:	00813083          	ld	ra,8(sp)
    40002424:	00013403          	ld	s0,0(sp)
    40002428:	01010113          	add	sp,sp,16
    4000242c:	00008067          	ret
    40002430:	00000097          	auipc	ra,0x0
    40002434:	a4c080e7          	jalr	-1460(ra) # 40001e7c <add_command_history>
    40002438:	fc9ff06f          	j	40002400 <console_cmd_process+0xf0>
    4000243c:	00018797          	auipc	a5,0x18
    40002440:	eac7a783          	lw	a5,-340(a5) # 4001a2e8 <arrow_flag>
    40002444:	04078c63          	beqz	a5,4000249c <console_cmd_process+0x18c>
    40002448:	00018697          	auipc	a3,0x18
    4000244c:	ea46a683          	lw	a3,-348(a3) # 4001a2ec <last_duration>
    40002450:	00a00713          	li	a4,10
    40002454:	00d76a63          	bltu	a4,a3,40002468 <console_cmd_process+0x158>
    40002458:	0017879b          	addw	a5,a5,1
    4000245c:	00018717          	auipc	a4,0x18
    40002460:	e8f72623          	sw	a5,-372(a4) # 4001a2e8 <arrow_flag>
    40002464:	fbdff06f          	j	40002420 <console_cmd_process+0x110>
    40002468:	00018797          	auipc	a5,0x18
    4000246c:	e807a023          	sw	zero,-384(a5) # 4001a2e8 <arrow_flag>
    40002470:	00018797          	auipc	a5,0x18
    40002474:	e8878793          	add	a5,a5,-376 # 4001a2f8 <cmd_buf_idx>
    40002478:	0007a703          	lw	a4,0(a5)
    4000247c:	0017069b          	addw	a3,a4,1
    40002480:	00d7a023          	sw	a3,0(a5)
    40002484:	0001d797          	auipc	a5,0x1d
    40002488:	80478793          	add	a5,a5,-2044 # 4001ec88 <cmd_buf>
    4000248c:	00e787b3          	add	a5,a5,a4
    40002490:	05b00713          	li	a4,91
    40002494:	00e78023          	sb	a4,0(a5)
    40002498:	f89ff06f          	j	40002420 <console_cmd_process+0x110>
    4000249c:	00018797          	auipc	a5,0x18
    400024a0:	e5c78793          	add	a5,a5,-420 # 4001a2f8 <cmd_buf_idx>
    400024a4:	0007a703          	lw	a4,0(a5)
    400024a8:	0017069b          	addw	a3,a4,1
    400024ac:	00d7a023          	sw	a3,0(a5)
    400024b0:	0001c797          	auipc	a5,0x1c
    400024b4:	7d878793          	add	a5,a5,2008 # 4001ec88 <cmd_buf>
    400024b8:	00e787b3          	add	a5,a5,a4
    400024bc:	05b00713          	li	a4,91
    400024c0:	00e78023          	sb	a4,0(a5)
    400024c4:	f5dff06f          	j	40002420 <console_cmd_process+0x110>
    400024c8:	00018717          	auipc	a4,0x18
    400024cc:	e2072703          	lw	a4,-480(a4) # 4001a2e8 <arrow_flag>
    400024d0:	00200793          	li	a5,2
    400024d4:	02f70c63          	beq	a4,a5,4000250c <console_cmd_process+0x1fc>
    400024d8:	00018797          	auipc	a5,0x18
    400024dc:	e007a823          	sw	zero,-496(a5) # 4001a2e8 <arrow_flag>
    400024e0:	00018797          	auipc	a5,0x18
    400024e4:	e1878793          	add	a5,a5,-488 # 4001a2f8 <cmd_buf_idx>
    400024e8:	0007a703          	lw	a4,0(a5)
    400024ec:	0017069b          	addw	a3,a4,1
    400024f0:	00d7a023          	sw	a3,0(a5)
    400024f4:	0001c797          	auipc	a5,0x1c
    400024f8:	79478793          	add	a5,a5,1940 # 4001ec88 <cmd_buf>
    400024fc:	00e787b3          	add	a5,a5,a4
    40002500:	04100713          	li	a4,65
    40002504:	00e78023          	sb	a4,0(a5)
    40002508:	f19ff06f          	j	40002420 <console_cmd_process+0x110>
    4000250c:	00018717          	auipc	a4,0x18
    40002510:	de072703          	lw	a4,-544(a4) # 4001a2ec <last_duration>
    40002514:	00a00793          	li	a5,10
    40002518:	04e7f463          	bgeu	a5,a4,40002560 <console_cmd_process+0x250>
    4000251c:	00018797          	auipc	a5,0x18
    40002520:	dc07a623          	sw	zero,-564(a5) # 4001a2e8 <arrow_flag>
    40002524:	00018697          	auipc	a3,0x18
    40002528:	dd468693          	add	a3,a3,-556 # 4001a2f8 <cmd_buf_idx>
    4000252c:	0006a783          	lw	a5,0(a3)
    40002530:	0001c717          	auipc	a4,0x1c
    40002534:	75870713          	add	a4,a4,1880 # 4001ec88 <cmd_buf>
    40002538:	00f70633          	add	a2,a4,a5
    4000253c:	05b00593          	li	a1,91
    40002540:	00b60023          	sb	a1,0(a2)
    40002544:	0027861b          	addw	a2,a5,2
    40002548:	00c6a023          	sw	a2,0(a3)
    4000254c:	0017879b          	addw	a5,a5,1
    40002550:	00f70733          	add	a4,a4,a5
    40002554:	04100793          	li	a5,65
    40002558:	00f70023          	sb	a5,0(a4)
    4000255c:	ec5ff06f          	j	40002420 <console_cmd_process+0x110>
    40002560:	00018797          	auipc	a5,0x18
    40002564:	d807a423          	sw	zero,-632(a5) # 4001a2e8 <arrow_flag>
    40002568:	00000513          	li	a0,0
    4000256c:	fffff097          	auipc	ra,0xfffff
    40002570:	6c8080e7          	jalr	1736(ra) # 40001c34 <retrieve_command_history>
    40002574:	eadff06f          	j	40002420 <console_cmd_process+0x110>
    40002578:	00018717          	auipc	a4,0x18
    4000257c:	d7072703          	lw	a4,-656(a4) # 4001a2e8 <arrow_flag>
    40002580:	00200793          	li	a5,2
    40002584:	02f70c63          	beq	a4,a5,400025bc <console_cmd_process+0x2ac>
    40002588:	00018797          	auipc	a5,0x18
    4000258c:	d607a023          	sw	zero,-672(a5) # 4001a2e8 <arrow_flag>
    40002590:	00018797          	auipc	a5,0x18
    40002594:	d6878793          	add	a5,a5,-664 # 4001a2f8 <cmd_buf_idx>
    40002598:	0007a703          	lw	a4,0(a5)
    4000259c:	0017069b          	addw	a3,a4,1
    400025a0:	00d7a023          	sw	a3,0(a5)
    400025a4:	0001c797          	auipc	a5,0x1c
    400025a8:	6e478793          	add	a5,a5,1764 # 4001ec88 <cmd_buf>
    400025ac:	00e787b3          	add	a5,a5,a4
    400025b0:	04200713          	li	a4,66
    400025b4:	00e78023          	sb	a4,0(a5)
    400025b8:	e69ff06f          	j	40002420 <console_cmd_process+0x110>
    400025bc:	00018717          	auipc	a4,0x18
    400025c0:	d3072703          	lw	a4,-720(a4) # 4001a2ec <last_duration>
    400025c4:	00a00793          	li	a5,10
    400025c8:	04e7f463          	bgeu	a5,a4,40002610 <console_cmd_process+0x300>
    400025cc:	00018797          	auipc	a5,0x18
    400025d0:	d007ae23          	sw	zero,-740(a5) # 4001a2e8 <arrow_flag>
    400025d4:	00018697          	auipc	a3,0x18
    400025d8:	d2468693          	add	a3,a3,-732 # 4001a2f8 <cmd_buf_idx>
    400025dc:	0006a783          	lw	a5,0(a3)
    400025e0:	0001c717          	auipc	a4,0x1c
    400025e4:	6a870713          	add	a4,a4,1704 # 4001ec88 <cmd_buf>
    400025e8:	00f70633          	add	a2,a4,a5
    400025ec:	05b00593          	li	a1,91
    400025f0:	00b60023          	sb	a1,0(a2)
    400025f4:	0027861b          	addw	a2,a5,2
    400025f8:	00c6a023          	sw	a2,0(a3)
    400025fc:	0017879b          	addw	a5,a5,1
    40002600:	00f70733          	add	a4,a4,a5
    40002604:	04200793          	li	a5,66
    40002608:	00f70023          	sb	a5,0(a4)
    4000260c:	e15ff06f          	j	40002420 <console_cmd_process+0x110>
    40002610:	00018797          	auipc	a5,0x18
    40002614:	cc07ac23          	sw	zero,-808(a5) # 4001a2e8 <arrow_flag>
    40002618:	00100513          	li	a0,1
    4000261c:	fffff097          	auipc	ra,0xfffff
    40002620:	618080e7          	jalr	1560(ra) # 40001c34 <retrieve_command_history>
    40002624:	dfdff06f          	j	40002420 <console_cmd_process+0x110>
    40002628:	00018717          	auipc	a4,0x18
    4000262c:	cc072703          	lw	a4,-832(a4) # 4001a2e8 <arrow_flag>
    40002630:	00200793          	li	a5,2
    40002634:	02f70c63          	beq	a4,a5,4000266c <console_cmd_process+0x35c>
    40002638:	00018797          	auipc	a5,0x18
    4000263c:	ca07a823          	sw	zero,-848(a5) # 4001a2e8 <arrow_flag>
    40002640:	00018797          	auipc	a5,0x18
    40002644:	cb878793          	add	a5,a5,-840 # 4001a2f8 <cmd_buf_idx>
    40002648:	0007a703          	lw	a4,0(a5)
    4000264c:	0017069b          	addw	a3,a4,1
    40002650:	00d7a023          	sw	a3,0(a5)
    40002654:	0001c797          	auipc	a5,0x1c
    40002658:	63478793          	add	a5,a5,1588 # 4001ec88 <cmd_buf>
    4000265c:	00e787b3          	add	a5,a5,a4
    40002660:	04300713          	li	a4,67
    40002664:	00e78023          	sb	a4,0(a5)
    40002668:	db9ff06f          	j	40002420 <console_cmd_process+0x110>
    4000266c:	00018717          	auipc	a4,0x18
    40002670:	c8072703          	lw	a4,-896(a4) # 4001a2ec <last_duration>
    40002674:	00a00793          	li	a5,10
    40002678:	00e7e863          	bltu	a5,a4,40002688 <console_cmd_process+0x378>
    4000267c:	00018797          	auipc	a5,0x18
    40002680:	c607a623          	sw	zero,-916(a5) # 4001a2e8 <arrow_flag>
    40002684:	d9dff06f          	j	40002420 <console_cmd_process+0x110>
    40002688:	00018797          	auipc	a5,0x18
    4000268c:	c607a023          	sw	zero,-928(a5) # 4001a2e8 <arrow_flag>
    40002690:	00018697          	auipc	a3,0x18
    40002694:	c6868693          	add	a3,a3,-920 # 4001a2f8 <cmd_buf_idx>
    40002698:	0006a783          	lw	a5,0(a3)
    4000269c:	0001c717          	auipc	a4,0x1c
    400026a0:	5ec70713          	add	a4,a4,1516 # 4001ec88 <cmd_buf>
    400026a4:	00f70633          	add	a2,a4,a5
    400026a8:	05b00593          	li	a1,91
    400026ac:	00b60023          	sb	a1,0(a2)
    400026b0:	0027861b          	addw	a2,a5,2
    400026b4:	00c6a023          	sw	a2,0(a3)
    400026b8:	0017879b          	addw	a5,a5,1
    400026bc:	00f70733          	add	a4,a4,a5
    400026c0:	04300793          	li	a5,67
    400026c4:	00f70023          	sb	a5,0(a4)
    400026c8:	d59ff06f          	j	40002420 <console_cmd_process+0x110>
    400026cc:	00018717          	auipc	a4,0x18
    400026d0:	c1c72703          	lw	a4,-996(a4) # 4001a2e8 <arrow_flag>
    400026d4:	00200793          	li	a5,2
    400026d8:	02f70c63          	beq	a4,a5,40002710 <console_cmd_process+0x400>
    400026dc:	00018797          	auipc	a5,0x18
    400026e0:	c007a623          	sw	zero,-1012(a5) # 4001a2e8 <arrow_flag>
    400026e4:	00018797          	auipc	a5,0x18
    400026e8:	c1478793          	add	a5,a5,-1004 # 4001a2f8 <cmd_buf_idx>
    400026ec:	0007a703          	lw	a4,0(a5)
    400026f0:	0017069b          	addw	a3,a4,1
    400026f4:	00d7a023          	sw	a3,0(a5)
    400026f8:	0001c797          	auipc	a5,0x1c
    400026fc:	59078793          	add	a5,a5,1424 # 4001ec88 <cmd_buf>
    40002700:	00e787b3          	add	a5,a5,a4
    40002704:	04400713          	li	a4,68
    40002708:	00e78023          	sb	a4,0(a5)
    4000270c:	d15ff06f          	j	40002420 <console_cmd_process+0x110>
    40002710:	00018717          	auipc	a4,0x18
    40002714:	bdc72703          	lw	a4,-1060(a4) # 4001a2ec <last_duration>
    40002718:	00a00793          	li	a5,10
    4000271c:	00e7e863          	bltu	a5,a4,4000272c <console_cmd_process+0x41c>
    40002720:	00018797          	auipc	a5,0x18
    40002724:	bc07a423          	sw	zero,-1080(a5) # 4001a2e8 <arrow_flag>
    40002728:	cf9ff06f          	j	40002420 <console_cmd_process+0x110>
    4000272c:	00018797          	auipc	a5,0x18
    40002730:	ba07ae23          	sw	zero,-1092(a5) # 4001a2e8 <arrow_flag>
    40002734:	00018697          	auipc	a3,0x18
    40002738:	bc468693          	add	a3,a3,-1084 # 4001a2f8 <cmd_buf_idx>
    4000273c:	0006a783          	lw	a5,0(a3)
    40002740:	0001c717          	auipc	a4,0x1c
    40002744:	54870713          	add	a4,a4,1352 # 4001ec88 <cmd_buf>
    40002748:	00f70633          	add	a2,a4,a5
    4000274c:	05b00593          	li	a1,91
    40002750:	00b60023          	sb	a1,0(a2)
    40002754:	0027861b          	addw	a2,a5,2
    40002758:	00c6a023          	sw	a2,0(a3)
    4000275c:	0017879b          	addw	a5,a5,1
    40002760:	00f70733          	add	a4,a4,a5
    40002764:	04400793          	li	a5,68
    40002768:	00f70023          	sb	a5,0(a4)
    4000276c:	cb5ff06f          	j	40002420 <console_cmd_process+0x110>
    40002770:	00018717          	auipc	a4,0x18
    40002774:	b7870713          	add	a4,a4,-1160 # 4001a2e8 <arrow_flag>
    40002778:	00072783          	lw	a5,0(a4)
    4000277c:	0017879b          	addw	a5,a5,1
    40002780:	00f72023          	sw	a5,0(a4)
    40002784:	c9dff06f          	j	40002420 <console_cmd_process+0x110>
    40002788:	00018797          	auipc	a5,0x18
    4000278c:	b607a023          	sw	zero,-1184(a5) # 4001a2e8 <arrow_flag>
    40002790:	00018797          	auipc	a5,0x18
    40002794:	b6878793          	add	a5,a5,-1176 # 4001a2f8 <cmd_buf_idx>
    40002798:	0007a703          	lw	a4,0(a5)
    4000279c:	0017069b          	addw	a3,a4,1
    400027a0:	00d7a023          	sw	a3,0(a5)
    400027a4:	0001c797          	auipc	a5,0x1c
    400027a8:	4e478793          	add	a5,a5,1252 # 4001ec88 <cmd_buf>
    400027ac:	00e787b3          	add	a5,a5,a4
    400027b0:	00a78023          	sb	a0,0(a5)
    400027b4:	c6dff06f          	j	40002420 <console_cmd_process+0x110>

00000000400027b8 <console_get_char>:
    400027b8:	fe010113          	add	sp,sp,-32
    400027bc:	00113c23          	sd	ra,24(sp)
    400027c0:	00813823          	sd	s0,16(sp)
    400027c4:	00913423          	sd	s1,8(sp)
    400027c8:	02010413          	add	s0,sp,32
    400027cc:	00050493          	mv	s1,a0
    400027d0:	00018517          	auipc	a0,0x18
    400027d4:	b1c50513          	add	a0,a0,-1252 # 4001a2ec <last_duration>
    400027d8:	fffff097          	auipc	ra,0xfffff
    400027dc:	3f4080e7          	jalr	1012(ra) # 40001bcc <k_stop_timing>
    400027e0:	00048513          	mv	a0,s1
    400027e4:	00000097          	auipc	ra,0x0
    400027e8:	87c080e7          	jalr	-1924(ra) # 40002060 <console_display>
    400027ec:	00048513          	mv	a0,s1
    400027f0:	00000097          	auipc	ra,0x0
    400027f4:	b20080e7          	jalr	-1248(ra) # 40002310 <console_cmd_process>
    400027f8:	fffff097          	auipc	ra,0xfffff
    400027fc:	3ac080e7          	jalr	940(ra) # 40001ba4 <k_start_timing>
    40002800:	01813083          	ld	ra,24(sp)
    40002804:	01013403          	ld	s0,16(sp)
    40002808:	00813483          	ld	s1,8(sp)
    4000280c:	02010113          	add	sp,sp,32
    40002810:	00008067          	ret
	...
